ccopy_reg
_reconstructor
p1
(copenalea.mtg.mtg
MTG
p2
c__builtin__
object
p3
NtRp4
(dp5
S'_components'
p6
(dp7
I0
(lp8
I1
asI1
(lp9
I2
aI181
aI314
aI431
aI547
aI663
aI748
asI2
(lp10
I3
aI7
aI22
aI37
aI53
aI69
aI85
aI101
aI117
aI133
aI149
aI165
asI3
(lp11
I4
asI4
(lp12
I5
asI517
(lp13
I518
asI7
(lp14
I8
aI11
aI14
asI8
(lp15
I9
asI172
(lp16
I173
asI11
(lp17
I12
asI14
(lp18
I15
asI532
(lp19
I533
aI536
aI539
asI533
(lp20
I534
asI22
(lp21
I23
aI26
aI29
asI23
(lp22
I24
asI536
(lp23
I537
asI516
(lp24
I517
aI520
aI523
asI26
(lp25
I27
asI539
(lp26
I540
asI29
(lp27
I30
asI547
(lp28
I548
aI552
aI568
aI584
aI600
aI616
aI632
aI648
asI548
(lp29
I549
asI37
(lp30
I38
aI41
aI44
asI38
(lp31
I39
asI552
(lp32
I553
aI556
aI559
asI41
(lp33
I42
asI44
(lp34
I45
asI559
(lp35
I560
asI520
(lp36
I521
asI53
(lp37
I54
aI57
aI60
asI54
(lp38
I55
asI568
(lp39
I569
aI572
aI575
asI57
(lp40
I58
asI60
(lp41
I61
asI575
(lp42
I576
asI523
(lp43
I524
asI69
(lp44
I70
aI73
aI76
asI70
(lp45
I71
asI584
(lp46
I585
aI588
aI591
asI73
(lp47
I74
asI76
(lp48
I77
asI591
(lp49
I592
asI85
(lp50
I86
aI89
aI92
asI86
(lp51
I87
asI600
(lp52
I601
aI604
aI607
asI601
(lp53
I602
asI92
(lp54
I93
asI607
(lp55
I608
asI101
(lp56
I102
aI105
aI108
asI102
(lp57
I103
asI616
(lp58
I617
aI620
aI623
asI105
(lp59
I106
asI108
(lp60
I109
asI623
(lp61
I624
asI117
(lp62
I118
aI121
aI124
asI89
(lp63
I90
asI617
(lp64
I618
asI632
(lp65
I633
aI636
aI639
asI121
(lp66
I122
asI124
(lp67
I125
asI639
(lp68
I640
asI133
(lp69
I134
aI137
aI140
asI134
(lp70
I135
asI648
(lp71
I649
aI652
aI655
asI137
(lp72
I138
asI140
(lp73
I141
asI655
(lp74
I656
asI149
(lp75
I150
aI153
aI156
asI150
(lp76
I151
asI663
(lp77
I664
aI668
aI684
aI700
aI716
aI732
asI664
(lp78
I665
asI153
(lp79
I154
asI156
(lp80
I157
asI669
(lp81
I670
asI672
(lp82
I673
asI675
(lp83
I676
asI165
(lp84
I166
aI169
aI172
asI166
(lp85
I167
asI169
(lp86
I170
asI684
(lp87
I685
aI688
aI691
asI685
(lp88
I686
asI688
(lp89
I689
asI691
(lp90
I692
asI181
(lp91
I182
aI186
aI202
aI218
aI234
aI250
aI266
aI282
aI298
asI182
(lp92
I183
asI183
(lp93
I184
aI185
asI186
(lp94
I187
aI190
aI193
asI187
(lp95
I188
asI700
(lp96
I701
aI704
aI707
asI701
(lp97
I702
asI190
(lp98
I191
asI704
(lp99
I705
asI193
(lp100
I194
asI707
(lp101
I708
asI118
(lp102
I119
asI202
(lp103
I203
aI206
aI209
asI203
(lp104
I204
asI716
(lp105
I717
aI720
aI723
asI717
(lp106
I718
asI206
(lp107
I207
asI720
(lp108
I721
asI209
(lp109
I210
asI723
(lp110
I724
asI633
(lp111
I634
asI218
(lp112
I219
aI222
aI225
asI219
(lp113
I220
asI732
(lp114
I733
aI736
aI739
asI733
(lp115
I734
asI222
(lp116
I223
asI549
(lp117
I550
aI551
asI604
(lp118
I605
asI225
(lp119
I226
asI739
(lp120
I740
asI636
(lp121
I637
asI234
(lp122
I235
aI238
aI241
asI235
(lp123
I236
asI748
(lp124
I749
aI753
aI768
aI783
aI798
asI749
(lp125
I750
asI238
(lp126
I239
asI241
(lp127
I242
asI754
(lp128
I755
asI757
(lp129
I758
asI553
(lp130
I554
asI760
(lp131
I761
asI250
(lp132
I251
aI254
aI257
asI251
(lp133
I252
asI254
(lp134
I255
asI768
(lp135
I769
aI772
aI775
asI257
(lp136
I258
asI772
(lp137
I773
asI775
(lp138
I776
asI556
(lp139
I557
asI266
(lp140
I267
aI270
aI273
asI267
(lp141
I268
asI270
(lp142
I271
asI783
(lp143
I784
aI787
aI790
asI784
(lp144
I785
asI273
(lp145
I274
asI787
(lp146
I788
asI790
(lp147
I791
asI282
(lp148
I283
aI286
aI289
asI283
(lp149
I284
asI286
(lp150
I287
asI799
(lp151
I800
asI289
(lp152
I290
asI802
(lp153
I803
asI805
(lp154
I806
asI298
(lp155
I299
aI302
aI305
asI299
(lp156
I300
asI769
(lp157
I770
asI302
(lp158
I303
asI305
(lp159
I306
asI649
(lp160
I650
asI314
(lp161
I315
aI319
aI335
aI351
aI367
aI383
aI399
aI415
asI315
(lp162
I316
asI316
(lp163
I317
aI318
asI319
(lp164
I320
aI323
aI326
asI320
(lp165
I321
asI736
(lp166
I737
asI323
(lp167
I324
asI326
(lp168
I327
asI652
(lp169
I653
asI335
(lp170
I336
aI339
aI342
asI336
(lp171
I337
asI339
(lp172
I340
asI342
(lp173
I343
asI569
(lp174
I570
asI351
(lp175
I352
aI355
aI358
asI352
(lp176
I353
asI355
(lp177
I356
asI358
(lp178
I359
asI572
(lp179
I573
asI367
(lp180
I368
aI371
aI374
asI368
(lp181
I369
asI371
(lp182
I372
asI374
(lp183
I375
asI383
(lp184
I384
aI387
aI390
asI384
(lp185
I385
asI387
(lp186
I388
asI390
(lp187
I391
asI399
(lp188
I400
aI403
aI406
asI400
(lp189
I401
asI403
(lp190
I404
asI750
(lp191
I751
aI752
asI406
(lp192
I407
asI665
(lp193
I666
aI667
asI415
(lp194
I416
aI419
aI422
asI416
(lp195
I417
asI798
(lp196
I799
aI802
aI805
asI419
(lp197
I420
asI422
(lp198
I423
asI753
(lp199
I754
aI757
aI760
asI668
(lp200
I669
aI672
aI675
asI431
(lp201
I432
aI436
aI452
aI468
aI484
aI500
aI516
aI532
asI432
(lp202
I433
asI433
(lp203
I434
aI435
asI436
(lp204
I437
aI440
aI443
asI437
(lp205
I438
asI585
(lp206
I586
asI440
(lp207
I441
asI443
(lp208
I444
asI452
(lp209
I453
aI456
aI459
asI453
(lp210
I454
asI620
(lp211
I621
asI456
(lp212
I457
asI588
(lp213
I589
asI459
(lp214
I460
asI468
(lp215
I469
aI472
aI475
asI469
(lp216
I470
asI472
(lp217
I473
asI475
(lp218
I476
asI484
(lp219
I485
aI488
aI491
asI485
(lp220
I486
asI488
(lp221
I489
asI491
(lp222
I492
asI500
(lp223
I501
aI504
aI507
asI501
(lp224
I502
asI504
(lp225
I505
asI507
(lp226
I508
assS'_scale'
p227
(dp228
I0
I0
sI1
I1
sI2
I2
sI3
I3
sI4
I4
sI5
I5
sI6
I5
sI7
I3
sI8
I4
sI9
I5
sI10
I5
sI11
I4
sI12
I5
sI13
I5
sI14
I4
sI15
I5
sI16
I5
sI17
I5
sI18
I5
sI19
I5
sI20
I5
sI21
I5
sI22
I3
sI23
I4
sI24
I5
sI25
I5
sI26
I4
sI27
I5
sI28
I5
sI29
I4
sI30
I5
sI31
I5
sI32
I5
sI33
I5
sI34
I5
sI35
I5
sI36
I5
sI37
I3
sI38
I4
sI39
I5
sI40
I5
sI41
I4
sI42
I5
sI43
I5
sI44
I4
sI45
I5
sI46
I5
sI47
I5
sI48
I5
sI49
I5
sI50
I5
sI51
I5
sI52
I5
sI53
I3
sI54
I4
sI55
I5
sI56
I5
sI57
I4
sI58
I5
sI59
I5
sI60
I4
sI61
I5
sI62
I5
sI63
I5
sI64
I5
sI65
I5
sI66
I5
sI68
I5
sI69
I3
sI70
I4
sI71
I5
sI72
I5
sI73
I4
sI74
I5
sI75
I5
sI76
I4
sI77
I5
sI78
I5
sI79
I5
sI80
I5
sI81
I5
sI82
I5
sI84
I5
sI85
I3
sI86
I4
sI87
I5
sI88
I5
sI89
I4
sI90
I5
sI91
I5
sI92
I4
sI93
I5
sI94
I5
sI95
I5
sI96
I5
sI97
I5
sI98
I5
sI100
I5
sI101
I3
sI102
I4
sI103
I5
sI104
I5
sI105
I4
sI106
I5
sI107
I5
sI108
I4
sI109
I5
sI110
I5
sI111
I5
sI112
I5
sI113
I5
sI114
I5
sI116
I5
sI117
I3
sI118
I4
sI119
I5
sI120
I5
sI121
I4
sI122
I5
sI123
I5
sI124
I4
sI125
I5
sI126
I5
sI127
I5
sI128
I5
sI129
I5
sI130
I5
sI132
I5
sI133
I3
sI134
I4
sI135
I5
sI136
I5
sI137
I4
sI138
I5
sI139
I5
sI140
I4
sI141
I5
sI142
I5
sI143
I5
sI144
I5
sI145
I5
sI146
I5
sI148
I5
sI149
I3
sI150
I4
sI151
I5
sI152
I5
sI153
I4
sI154
I5
sI155
I5
sI156
I4
sI157
I5
sI158
I5
sI159
I5
sI160
I5
sI161
I5
sI162
I5
sI164
I5
sI165
I3
sI166
I4
sI167
I5
sI168
I5
sI169
I4
sI170
I5
sI171
I5
sI172
I4
sI173
I5
sI174
I5
sI175
I5
sI176
I5
sI177
I5
sI178
I5
sI180
I5
sI181
I2
sI182
I3
sI183
I4
sI184
I5
sI185
I5
sI186
I3
sI187
I4
sI188
I5
sI189
I5
sI190
I4
sI191
I5
sI192
I5
sI193
I4
sI194
I5
sI195
I5
sI196
I5
sI197
I5
sI198
I5
sI199
I5
sI201
I5
sI202
I3
sI203
I4
sI204
I5
sI205
I5
sI206
I4
sI207
I5
sI208
I5
sI209
I4
sI210
I5
sI211
I5
sI212
I5
sI213
I5
sI214
I5
sI215
I5
sI217
I5
sI218
I3
sI219
I4
sI220
I5
sI221
I5
sI222
I4
sI223
I5
sI224
I5
sI225
I4
sI226
I5
sI227
I5
sI228
I5
sI229
I5
sI230
I5
sI231
I5
sI233
I5
sI234
I3
sI235
I4
sI236
I5
sI237
I5
sI238
I4
sI239
I5
sI240
I5
sI241
I4
sI242
I5
sI243
I5
sI244
I5
sI245
I5
sI246
I5
sI247
I5
sI249
I5
sI250
I3
sI251
I4
sI252
I5
sI253
I5
sI254
I4
sI255
I5
sI256
I5
sI257
I4
sI258
I5
sI259
I5
sI260
I5
sI261
I5
sI262
I5
sI263
I5
sI265
I5
sI266
I3
sI267
I4
sI268
I5
sI269
I5
sI270
I4
sI271
I5
sI272
I5
sI273
I4
sI274
I5
sI275
I5
sI276
I5
sI277
I5
sI278
I5
sI279
I5
sI281
I5
sI282
I3
sI283
I4
sI284
I5
sI285
I5
sI286
I4
sI287
I5
sI288
I5
sI289
I4
sI290
I5
sI291
I5
sI292
I5
sI293
I5
sI294
I5
sI295
I5
sI297
I5
sI298
I3
sI299
I4
sI300
I5
sI301
I5
sI302
I4
sI303
I5
sI304
I5
sI305
I4
sI306
I5
sI307
I5
sI308
I5
sI309
I5
sI310
I5
sI311
I5
sI313
I5
sI314
I2
sI315
I3
sI316
I4
sI317
I5
sI318
I5
sI319
I3
sI320
I4
sI321
I5
sI322
I5
sI323
I4
sI324
I5
sI325
I5
sI326
I4
sI327
I5
sI328
I5
sI329
I5
sI330
I5
sI331
I5
sI332
I5
sI334
I5
sI335
I3
sI336
I4
sI337
I5
sI338
I5
sI339
I4
sI340
I5
sI341
I5
sI342
I4
sI343
I5
sI344
I5
sI345
I5
sI346
I5
sI347
I5
sI348
I5
sI350
I5
sI351
I3
sI352
I4
sI353
I5
sI354
I5
sI355
I4
sI356
I5
sI357
I5
sI358
I4
sI359
I5
sI360
I5
sI361
I5
sI362
I5
sI363
I5
sI364
I5
sI366
I5
sI367
I3
sI368
I4
sI369
I5
sI370
I5
sI371
I4
sI372
I5
sI373
I5
sI374
I4
sI375
I5
sI376
I5
sI377
I5
sI378
I5
sI379
I5
sI380
I5
sI382
I5
sI383
I3
sI384
I4
sI385
I5
sI386
I5
sI387
I4
sI388
I5
sI389
I5
sI390
I4
sI391
I5
sI392
I5
sI393
I5
sI394
I5
sI395
I5
sI396
I5
sI398
I5
sI399
I3
sI400
I4
sI401
I5
sI402
I5
sI403
I4
sI404
I5
sI405
I5
sI406
I4
sI407
I5
sI408
I5
sI409
I5
sI410
I5
sI411
I5
sI412
I5
sI414
I5
sI415
I3
sI416
I4
sI417
I5
sI418
I5
sI419
I4
sI420
I5
sI421
I5
sI422
I4
sI423
I5
sI424
I5
sI425
I5
sI426
I5
sI427
I5
sI428
I5
sI430
I5
sI431
I2
sI432
I3
sI433
I4
sI434
I5
sI435
I5
sI436
I3
sI437
I4
sI438
I5
sI439
I5
sI440
I4
sI441
I5
sI442
I5
sI443
I4
sI444
I5
sI445
I5
sI446
I5
sI447
I5
sI448
I5
sI449
I5
sI451
I5
sI452
I3
sI453
I4
sI454
I5
sI455
I5
sI456
I4
sI457
I5
sI458
I5
sI459
I4
sI460
I5
sI461
I5
sI462
I5
sI463
I5
sI464
I5
sI465
I5
sI467
I5
sI468
I3
sI469
I4
sI470
I5
sI471
I5
sI472
I4
sI473
I5
sI474
I5
sI475
I4
sI476
I5
sI477
I5
sI478
I5
sI479
I5
sI480
I5
sI481
I5
sI483
I5
sI484
I3
sI485
I4
sI486
I5
sI487
I5
sI488
I4
sI489
I5
sI490
I5
sI491
I4
sI492
I5
sI493
I5
sI494
I5
sI495
I5
sI496
I5
sI497
I5
sI499
I5
sI500
I3
sI501
I4
sI502
I5
sI503
I5
sI504
I4
sI505
I5
sI506
I5
sI507
I4
sI508
I5
sI509
I5
sI510
I5
sI511
I5
sI512
I5
sI513
I5
sI515
I5
sI516
I3
sI517
I4
sI518
I5
sI519
I5
sI520
I4
sI521
I5
sI522
I5
sI523
I4
sI524
I5
sI525
I5
sI526
I5
sI527
I5
sI528
I5
sI529
I5
sI531
I5
sI532
I3
sI533
I4
sI534
I5
sI535
I5
sI536
I4
sI537
I5
sI538
I5
sI539
I4
sI540
I5
sI541
I5
sI542
I5
sI543
I5
sI544
I5
sI545
I5
sI546
I5
sI547
I2
sI548
I3
sI549
I4
sI550
I5
sI551
I5
sI552
I3
sI553
I4
sI554
I5
sI555
I5
sI556
I4
sI557
I5
sI558
I5
sI559
I4
sI560
I5
sI561
I5
sI562
I5
sI563
I5
sI564
I5
sI565
I5
sI567
I5
sI568
I3
sI569
I4
sI570
I5
sI571
I5
sI572
I4
sI573
I5
sI574
I5
sI575
I4
sI576
I5
sI577
I5
sI578
I5
sI579
I5
sI580
I5
sI581
I5
sI583
I5
sI584
I3
sI585
I4
sI586
I5
sI587
I5
sI588
I4
sI589
I5
sI590
I5
sI591
I4
sI592
I5
sI593
I5
sI594
I5
sI595
I5
sI596
I5
sI597
I5
sI599
I5
sI600
I3
sI601
I4
sI602
I5
sI603
I5
sI604
I4
sI605
I5
sI606
I5
sI607
I4
sI608
I5
sI609
I5
sI610
I5
sI611
I5
sI612
I5
sI613
I5
sI615
I5
sI616
I3
sI617
I4
sI618
I5
sI619
I5
sI620
I4
sI621
I5
sI622
I5
sI623
I4
sI624
I5
sI625
I5
sI626
I5
sI627
I5
sI628
I5
sI629
I5
sI631
I5
sI632
I3
sI633
I4
sI634
I5
sI635
I5
sI636
I4
sI637
I5
sI638
I5
sI639
I4
sI640
I5
sI641
I5
sI642
I5
sI643
I5
sI644
I5
sI645
I5
sI647
I5
sI648
I3
sI649
I4
sI650
I5
sI651
I5
sI652
I4
sI653
I5
sI654
I5
sI655
I4
sI656
I5
sI657
I5
sI658
I5
sI659
I5
sI660
I5
sI661
I5
sI662
I5
sI663
I2
sI664
I3
sI665
I4
sI666
I5
sI667
I5
sI668
I3
sI669
I4
sI670
I5
sI671
I5
sI672
I4
sI673
I5
sI674
I5
sI675
I4
sI676
I5
sI677
I5
sI678
I5
sI679
I5
sI680
I5
sI681
I5
sI683
I5
sI684
I3
sI685
I4
sI686
I5
sI687
I5
sI688
I4
sI689
I5
sI690
I5
sI691
I4
sI692
I5
sI693
I5
sI694
I5
sI695
I5
sI696
I5
sI697
I5
sI699
I5
sI700
I3
sI701
I4
sI702
I5
sI703
I5
sI704
I4
sI705
I5
sI706
I5
sI707
I4
sI708
I5
sI709
I5
sI710
I5
sI711
I5
sI712
I5
sI713
I5
sI715
I5
sI716
I3
sI717
I4
sI718
I5
sI719
I5
sI720
I4
sI721
I5
sI722
I5
sI723
I4
sI724
I5
sI725
I5
sI726
I5
sI727
I5
sI728
I5
sI729
I5
sI731
I5
sI732
I3
sI733
I4
sI734
I5
sI735
I5
sI736
I4
sI737
I5
sI738
I5
sI739
I4
sI740
I5
sI741
I5
sI742
I5
sI743
I5
sI744
I5
sI745
I5
sI747
I5
sI748
I2
sI749
I3
sI750
I4
sI751
I5
sI752
I5
sI753
I3
sI754
I4
sI755
I5
sI756
I5
sI757
I4
sI758
I5
sI759
I5
sI760
I4
sI761
I5
sI762
I5
sI763
I5
sI764
I5
sI765
I5
sI766
I5
sI767
I5
sI768
I3
sI769
I4
sI770
I5
sI771
I5
sI772
I4
sI773
I5
sI774
I5
sI775
I4
sI776
I5
sI777
I5
sI778
I5
sI779
I5
sI780
I5
sI781
I5
sI782
I5
sI783
I3
sI784
I4
sI785
I5
sI786
I5
sI787
I4
sI788
I5
sI789
I5
sI790
I4
sI791
I5
sI792
I5
sI793
I5
sI794
I5
sI795
I5
sI796
I5
sI797
I5
sI798
I3
sI799
I4
sI800
I5
sI801
I5
sI802
I4
sI803
I5
sI804
I5
sI805
I4
sI806
I5
sI807
I5
sI808
I5
sI809
I5
sI810
I5
sI811
I5
sI812
I5
sI813
I5
sI814
I5
ssS'_children'
p229
(dp230
I2
(lp231
I181
aI314
aI547
aI663
asI3
(lp232
I7
asI4
(lp233
I8
asI5
(lp234
I6
asI6
(lp235
I9
asI7
(lp236
I22
aI182
asI8
(lp237
I11
aI23
aI183
asI9
(lp238
I18
aI184
asI10
(lp239
I12
aI24
asI11
(lp240
I14
asI12
(lp241
I20
asI13
(lp242
I15
asI15
(lp243
I21
asI17
(lp244
I10
asI18
(lp245
I17
asI19
(lp246
I13
asI20
(lp247
I19
asI21
(lp248
I813
asI22
(lp249
I37
aI315
asI23
(lp250
I26
aI38
aI316
asI24
(lp251
I33
aI317
asI25
(lp252
I27
aI39
asI26
(lp253
I29
asI27
(lp254
I35
asI28
(lp255
I30
asI30
(lp256
I36
asI32
(lp257
I25
asI33
(lp258
I32
asI34
(lp259
I28
asI35
(lp260
I34
asI36
(lp261
I814
asI37
(lp262
I53
aI548
asI38
(lp263
I41
aI54
aI549
asI39
(lp264
I48
aI550
asI40
(lp265
I42
aI55
asI41
(lp266
I44
asI42
(lp267
I50
asI43
(lp268
I45
asI45
(lp269
I52
asI47
(lp270
I40
asI48
(lp271
I47
asI49
(lp272
I43
asI50
(lp273
I49
asI51
(lp274
I46
asI52
(lp275
I51
asI53
(lp276
I69
aI664
asI54
(lp277
I57
aI70
aI665
asI55
(lp278
I64
aI666
asI56
(lp279
I58
aI71
asI57
(lp280
I60
asI58
(lp281
I66
asI59
(lp282
I61
asI61
(lp283
I68
asI63
(lp284
I56
asI64
(lp285
I63
asI65
(lp286
I59
asI66
(lp287
I65
asI68
(lp288
I62
asI69
(lp289
I85
asI70
(lp290
I73
aI86
asI71
(lp291
I80
asI72
(lp292
I74
aI87
asI73
(lp293
I76
asI74
(lp294
I82
asI75
(lp295
I77
asI77
(lp296
I84
asI79
(lp297
I72
asI80
(lp298
I79
asI81
(lp299
I75
asI82
(lp300
I81
asI84
(lp301
I78
asI85
(lp302
I101
asI86
(lp303
I89
aI102
asI87
(lp304
I96
asI88
(lp305
I90
aI103
asI89
(lp306
I92
asI90
(lp307
I98
asI91
(lp308
I93
asI93
(lp309
I100
asI95
(lp310
I88
asI96
(lp311
I95
asI97
(lp312
I91
asI98
(lp313
I97
asI100
(lp314
I94
asI101
(lp315
I117
asI102
(lp316
I105
aI118
asI103
(lp317
I112
asI104
(lp318
I106
aI119
asI105
(lp319
I108
asI106
(lp320
I114
asI107
(lp321
I109
asI109
(lp322
I116
asI111
(lp323
I104
asI112
(lp324
I111
asI113
(lp325
I107
asI114
(lp326
I113
asI116
(lp327
I110
asI117
(lp328
I133
asI118
(lp329
I121
aI134
asI119
(lp330
I128
asI120
(lp331
I122
aI135
asI121
(lp332
I124
asI122
(lp333
I130
asI123
(lp334
I125
asI125
(lp335
I132
asI127
(lp336
I120
asI128
(lp337
I127
asI129
(lp338
I123
asI130
(lp339
I129
asI132
(lp340
I126
asI133
(lp341
I149
asI134
(lp342
I137
aI150
asI135
(lp343
I144
asI136
(lp344
I138
aI151
asI137
(lp345
I140
asI138
(lp346
I146
asI139
(lp347
I141
asI141
(lp348
I148
asI143
(lp349
I136
asI144
(lp350
I143
asI145
(lp351
I139
asI146
(lp352
I145
asI148
(lp353
I142
asI149
(lp354
I165
asI150
(lp355
I153
aI166
asI151
(lp356
I160
asI152
(lp357
I154
aI167
asI153
(lp358
I156
asI154
(lp359
I162
asI155
(lp360
I157
asI157
(lp361
I164
asI159
(lp362
I152
asI160
(lp363
I159
asI161
(lp364
I155
asI162
(lp365
I161
asI164
(lp366
I158
asI166
(lp367
I169
asI167
(lp368
I176
asI168
(lp369
I170
asI169
(lp370
I172
asI170
(lp371
I178
asI171
(lp372
I173
asI173
(lp373
I180
asI175
(lp374
I168
asI176
(lp375
I175
asI177
(lp376
I171
asI178
(lp377
I177
asI180
(lp378
I174
asI181
(lp379
I431
asI182
(lp380
I186
aI432
asI183
(lp381
I187
aI433
asI184
(lp382
I185
aI434
asI185
(lp383
I188
asI186
(lp384
I202
asI187
(lp385
I190
aI203
asI188
(lp386
I197
asI189
(lp387
I191
aI204
asI190
(lp388
I193
asI191
(lp389
I199
asI192
(lp390
I194
asI194
(lp391
I201
asI196
(lp392
I189
asI197
(lp393
I196
asI198
(lp394
I192
asI199
(lp395
I198
asI201
(lp396
I195
asI202
(lp397
I218
asI203
(lp398
I206
aI219
asI204
(lp399
I213
asI205
(lp400
I207
aI220
asI206
(lp401
I209
asI207
(lp402
I215
asI208
(lp403
I210
asI210
(lp404
I217
asI212
(lp405
I205
asI213
(lp406
I212
asI214
(lp407
I208
asI215
(lp408
I214
asI217
(lp409
I211
asI218
(lp410
I234
asI219
(lp411
I222
aI235
asI220
(lp412
I229
asI221
(lp413
I223
aI236
asI222
(lp414
I225
asI223
(lp415
I231
asI224
(lp416
I226
asI226
(lp417
I233
asI228
(lp418
I221
asI229
(lp419
I228
asI230
(lp420
I224
asI231
(lp421
I230
asI233
(lp422
I227
asI234
(lp423
I250
asI235
(lp424
I238
aI251
asI236
(lp425
I245
asI237
(lp426
I239
aI252
asI238
(lp427
I241
asI239
(lp428
I247
asI240
(lp429
I242
asI242
(lp430
I249
asI244
(lp431
I237
asI245
(lp432
I244
asI246
(lp433
I240
asI247
(lp434
I246
asI249
(lp435
I243
asI250
(lp436
I266
asI251
(lp437
I254
aI267
asI252
(lp438
I261
asI253
(lp439
I255
aI268
asI254
(lp440
I257
asI255
(lp441
I263
asI256
(lp442
I258
asI258
(lp443
I265
asI260
(lp444
I253
asI261
(lp445
I260
asI262
(lp446
I256
asI263
(lp447
I262
asI265
(lp448
I259
asI266
(lp449
I282
asI267
(lp450
I270
aI283
asI268
(lp451
I277
asI269
(lp452
I271
aI284
asI270
(lp453
I273
asI271
(lp454
I279
asI272
(lp455
I274
asI274
(lp456
I281
asI276
(lp457
I269
asI277
(lp458
I276
asI278
(lp459
I272
asI279
(lp460
I278
asI281
(lp461
I275
asI282
(lp462
I298
asI283
(lp463
I286
aI299
asI284
(lp464
I293
asI285
(lp465
I287
aI300
asI286
(lp466
I289
asI287
(lp467
I295
asI288
(lp468
I290
asI290
(lp469
I297
asI292
(lp470
I285
asI293
(lp471
I292
asI294
(lp472
I288
asI295
(lp473
I294
asI297
(lp474
I291
asI299
(lp475
I302
asI300
(lp476
I309
asI301
(lp477
I303
asI302
(lp478
I305
asI303
(lp479
I311
asI304
(lp480
I306
asI306
(lp481
I313
asI308
(lp482
I301
asI309
(lp483
I308
asI310
(lp484
I304
asI311
(lp485
I310
asI313
(lp486
I307
asI314
(lp487
I748
asI315
(lp488
I319
aI749
asI316
(lp489
I320
aI750
asI317
(lp490
I318
aI751
asI318
(lp491
I321
asI319
(lp492
I335
asI320
(lp493
I323
aI336
asI321
(lp494
I330
asI322
(lp495
I324
aI337
asI323
(lp496
I326
asI324
(lp497
I332
asI325
(lp498
I327
asI327
(lp499
I334
asI329
(lp500
I322
asI330
(lp501
I329
asI331
(lp502
I325
asI332
(lp503
I331
asI334
(lp504
I328
asI335
(lp505
I351
asI336
(lp506
I339
aI352
asI337
(lp507
I346
asI338
(lp508
I340
aI353
asI339
(lp509
I342
asI340
(lp510
I348
asI341
(lp511
I343
asI343
(lp512
I350
asI345
(lp513
I338
asI346
(lp514
I345
asI347
(lp515
I341
asI348
(lp516
I347
asI350
(lp517
I344
asI351
(lp518
I367
asI352
(lp519
I355
aI368
asI353
(lp520
I362
asI354
(lp521
I356
aI369
asI355
(lp522
I358
asI356
(lp523
I364
asI357
(lp524
I359
asI359
(lp525
I366
asI361
(lp526
I354
asI362
(lp527
I361
asI363
(lp528
I357
asI364
(lp529
I363
asI366
(lp530
I360
asI367
(lp531
I383
asI368
(lp532
I371
aI384
asI369
(lp533
I378
asI370
(lp534
I372
aI385
asI371
(lp535
I374
asI372
(lp536
I380
asI373
(lp537
I375
asI375
(lp538
I382
asI377
(lp539
I370
asI378
(lp540
I377
asI379
(lp541
I373
asI380
(lp542
I379
asI382
(lp543
I376
asI383
(lp544
I399
asI384
(lp545
I387
aI400
asI385
(lp546
I394
asI386
(lp547
I388
aI401
asI387
(lp548
I390
asI388
(lp549
I396
asI389
(lp550
I391
asI391
(lp551
I398
asI393
(lp552
I386
asI394
(lp553
I393
asI395
(lp554
I389
asI396
(lp555
I395
asI398
(lp556
I392
asI399
(lp557
I415
asI400
(lp558
I403
aI416
asI401
(lp559
I410
asI402
(lp560
I404
aI417
asI403
(lp561
I406
asI404
(lp562
I412
asI405
(lp563
I407
asI407
(lp564
I414
asI409
(lp565
I402
asI410
(lp566
I409
asI411
(lp567
I405
asI412
(lp568
I411
asI414
(lp569
I408
asI416
(lp570
I419
asI417
(lp571
I426
asI418
(lp572
I420
asI419
(lp573
I422
asI420
(lp574
I428
asI421
(lp575
I423
asI423
(lp576
I430
asI425
(lp577
I418
asI426
(lp578
I425
asI427
(lp579
I421
asI428
(lp580
I427
asI430
(lp581
I424
asI432
(lp582
I436
asI433
(lp583
I437
asI434
(lp584
I435
asI435
(lp585
I438
asI436
(lp586
I452
asI437
(lp587
I440
aI453
asI438
(lp588
I447
asI439
(lp589
I441
aI454
asI440
(lp590
I443
asI441
(lp591
I449
asI442
(lp592
I444
asI444
(lp593
I451
asI446
(lp594
I439
asI447
(lp595
I446
asI448
(lp596
I442
asI449
(lp597
I448
asI451
(lp598
I445
asI452
(lp599
I468
asI453
(lp600
I456
aI469
asI454
(lp601
I463
asI455
(lp602
I457
aI470
asI456
(lp603
I459
asI457
(lp604
I465
asI458
(lp605
I460
asI460
(lp606
I467
asI462
(lp607
I455
asI463
(lp608
I462
asI464
(lp609
I458
asI465
(lp610
I464
asI467
(lp611
I461
asI468
(lp612
I484
asI469
(lp613
I472
aI485
asI470
(lp614
I479
asI471
(lp615
I473
aI486
asI472
(lp616
I475
asI473
(lp617
I481
asI474
(lp618
I476
asI476
(lp619
I483
asI478
(lp620
I471
asI479
(lp621
I478
asI480
(lp622
I474
asI481
(lp623
I480
asI483
(lp624
I477
asI484
(lp625
I500
asI485
(lp626
I488
aI501
asI486
(lp627
I495
asI487
(lp628
I489
aI502
asI488
(lp629
I491
asI489
(lp630
I497
asI490
(lp631
I492
asI492
(lp632
I499
asI494
(lp633
I487
asI495
(lp634
I494
asI496
(lp635
I490
asI497
(lp636
I496
asI499
(lp637
I493
asI500
(lp638
I516
asI501
(lp639
I504
aI517
asI502
(lp640
I511
asI503
(lp641
I505
aI518
asI504
(lp642
I507
asI505
(lp643
I513
asI506
(lp644
I508
asI508
(lp645
I515
asI510
(lp646
I503
asI511
(lp647
I510
asI512
(lp648
I506
asI513
(lp649
I512
asI515
(lp650
I509
asI516
(lp651
I532
asI517
(lp652
I520
aI533
asI518
(lp653
I527
asI519
(lp654
I521
aI534
asI520
(lp655
I523
asI521
(lp656
I529
asI522
(lp657
I524
asI524
(lp658
I531
asI526
(lp659
I519
asI527
(lp660
I526
asI528
(lp661
I522
asI529
(lp662
I528
asI531
(lp663
I525
asI533
(lp664
I536
asI534
(lp665
I543
asI535
(lp666
I537
asI536
(lp667
I539
asI537
(lp668
I545
asI538
(lp669
I540
asI540
(lp670
I546
asI542
(lp671
I535
asI543
(lp672
I542
asI544
(lp673
I538
asI545
(lp674
I544
asI546
(lp675
I541
asI548
(lp676
I552
asI549
(lp677
I553
asI550
(lp678
I551
asI551
(lp679
I554
asI552
(lp680
I568
asI553
(lp681
I556
aI569
asI554
(lp682
I563
asI555
(lp683
I557
aI570
asI556
(lp684
I559
asI557
(lp685
I565
asI558
(lp686
I560
asI560
(lp687
I567
asI562
(lp688
I555
asI563
(lp689
I562
asI564
(lp690
I558
asI565
(lp691
I564
asI567
(lp692
I561
asI568
(lp693
I584
asI569
(lp694
I572
aI585
asI570
(lp695
I579
asI571
(lp696
I573
aI586
asI572
(lp697
I575
asI573
(lp698
I581
asI574
(lp699
I576
asI576
(lp700
I583
asI578
(lp701
I571
asI579
(lp702
I578
asI580
(lp703
I574
asI581
(lp704
I580
asI583
(lp705
I577
asI584
(lp706
I600
asI585
(lp707
I588
aI601
asI586
(lp708
I595
asI587
(lp709
I589
aI602
asI588
(lp710
I591
asI589
(lp711
I597
asI590
(lp712
I592
asI592
(lp713
I599
asI594
(lp714
I587
asI595
(lp715
I594
asI596
(lp716
I590
asI597
(lp717
I596
asI599
(lp718
I593
asI600
(lp719
I616
asI601
(lp720
I604
aI617
asI602
(lp721
I611
asI603
(lp722
I605
aI618
asI604
(lp723
I607
asI605
(lp724
I613
asI606
(lp725
I608
asI608
(lp726
I615
asI610
(lp727
I603
asI611
(lp728
I610
asI612
(lp729
I606
asI613
(lp730
I612
asI615
(lp731
I609
asI616
(lp732
I632
asI617
(lp733
I620
aI633
asI618
(lp734
I627
asI619
(lp735
I621
aI634
asI620
(lp736
I623
asI621
(lp737
I629
asI622
(lp738
I624
asI624
(lp739
I631
asI626
(lp740
I619
asI627
(lp741
I626
asI628
(lp742
I622
asI629
(lp743
I628
asI631
(lp744
I625
asI632
(lp745
I648
asI633
(lp746
I636
aI649
asI634
(lp747
I643
asI635
(lp748
I637
aI650
asI636
(lp749
I639
asI637
(lp750
I645
asI638
(lp751
I640
asI640
(lp752
I647
asI642
(lp753
I635
asI643
(lp754
I642
asI644
(lp755
I638
asI645
(lp756
I644
asI647
(lp757
I641
asI649
(lp758
I652
asI650
(lp759
I659
asI651
(lp760
I653
asI652
(lp761
I655
asI653
(lp762
I661
asI654
(lp763
I656
asI656
(lp764
I662
asI658
(lp765
I651
asI659
(lp766
I658
asI660
(lp767
I654
asI661
(lp768
I660
asI662
(lp769
I657
asI664
(lp770
I668
asI665
(lp771
I669
asI666
(lp772
I667
asI667
(lp773
I670
asI668
(lp774
I684
asI669
(lp775
I672
aI685
asI670
(lp776
I679
asI671
(lp777
I673
aI686
asI672
(lp778
I675
asI673
(lp779
I681
asI674
(lp780
I676
asI676
(lp781
I683
asI678
(lp782
I671
asI679
(lp783
I678
asI680
(lp784
I674
asI681
(lp785
I680
asI683
(lp786
I677
asI684
(lp787
I700
asI685
(lp788
I688
aI701
asI686
(lp789
I695
asI687
(lp790
I689
aI702
asI688
(lp791
I691
asI689
(lp792
I697
asI690
(lp793
I692
asI692
(lp794
I699
asI694
(lp795
I687
asI695
(lp796
I694
asI696
(lp797
I690
asI697
(lp798
I696
asI699
(lp799
I693
asI700
(lp800
I716
asI701
(lp801
I704
aI717
asI702
(lp802
I711
asI703
(lp803
I705
aI718
asI704
(lp804
I707
asI705
(lp805
I713
asI706
(lp806
I708
asI708
(lp807
I715
asI710
(lp808
I703
asI711
(lp809
I710
asI712
(lp810
I706
asI713
(lp811
I712
asI715
(lp812
I709
asI716
(lp813
I732
asI717
(lp814
I720
aI733
asI718
(lp815
I727
asI719
(lp816
I721
aI734
asI720
(lp817
I723
asI721
(lp818
I729
asI722
(lp819
I724
asI724
(lp820
I731
asI726
(lp821
I719
asI727
(lp822
I726
asI728
(lp823
I722
asI729
(lp824
I728
asI731
(lp825
I725
asI733
(lp826
I736
asI734
(lp827
I743
asI735
(lp828
I737
asI736
(lp829
I739
asI737
(lp830
I745
asI738
(lp831
I740
asI740
(lp832
I747
asI742
(lp833
I735
asI743
(lp834
I742
asI744
(lp835
I738
asI745
(lp836
I744
asI747
(lp837
I741
asI749
(lp838
I753
asI750
(lp839
I754
asI751
(lp840
I752
asI752
(lp841
I755
asI753
(lp842
I768
asI754
(lp843
I757
aI769
asI755
(lp844
I764
asI756
(lp845
I758
aI770
asI757
(lp846
I760
asI758
(lp847
I766
asI759
(lp848
I761
asI761
(lp849
I767
asI763
(lp850
I756
asI764
(lp851
I763
asI765
(lp852
I759
asI766
(lp853
I765
asI767
(lp854
I762
asI768
(lp855
I783
asI769
(lp856
I772
aI784
asI770
(lp857
I779
asI771
(lp858
I773
aI785
asI772
(lp859
I775
asI773
(lp860
I781
asI774
(lp861
I776
asI776
(lp862
I782
asI778
(lp863
I771
asI779
(lp864
I778
asI780
(lp865
I774
asI781
(lp866
I780
asI782
(lp867
I777
asI783
(lp868
I798
asI784
(lp869
I787
aI799
asI785
(lp870
I794
asI786
(lp871
I788
aI800
asI787
(lp872
I790
asI788
(lp873
I796
asI789
(lp874
I791
asI791
(lp875
I797
asI793
(lp876
I786
asI794
(lp877
I793
asI795
(lp878
I789
asI796
(lp879
I795
asI797
(lp880
I792
asI799
(lp881
I802
asI800
(lp882
I809
asI801
(lp883
I803
asI802
(lp884
I805
asI803
(lp885
I811
asI804
(lp886
I806
asI806
(lp887
I812
asI808
(lp888
I801
asI809
(lp889
I808
asI810
(lp890
I804
asI811
(lp891
I810
asI812
(lp892
I807
asI813
(lp893
I16
asI814
(lp894
I31
assS'_root'
p895
I0
sS'_complex'
p896
(dp897
I1
I0
sI2
I1
sI3
I2
sI4
I3
sI5
I4
sI7
I2
sI8
I7
sI9
I8
sI11
I7
sI12
I11
sI14
I7
sI15
I14
sI22
I2
sI23
I22
sI24
I23
sI26
I22
sI27
I26
sI29
I22
sI30
I29
sI37
I2
sI38
I37
sI39
I38
sI41
I37
sI42
I41
sI44
I37
sI45
I44
sI53
I2
sI54
I53
sI55
I54
sI57
I53
sI58
I57
sI60
I53
sI61
I60
sI69
I2
sI70
I69
sI71
I70
sI73
I69
sI74
I73
sI76
I69
sI77
I76
sI85
I2
sI86
I85
sI87
I86
sI89
I85
sI90
I89
sI92
I85
sI93
I92
sI101
I2
sI102
I101
sI103
I102
sI105
I101
sI106
I105
sI108
I101
sI109
I108
sI117
I2
sI118
I117
sI119
I118
sI121
I117
sI122
I121
sI124
I117
sI125
I124
sI133
I2
sI134
I133
sI135
I134
sI137
I133
sI138
I137
sI140
I133
sI141
I140
sI149
I2
sI150
I149
sI151
I150
sI153
I149
sI154
I153
sI156
I149
sI157
I156
sI165
I2
sI166
I165
sI167
I166
sI169
I165
sI170
I169
sI172
I165
sI173
I172
sI181
I1
sI182
I181
sI183
I182
sI184
I183
sI185
I183
sI186
I181
sI187
I186
sI188
I187
sI190
I186
sI191
I190
sI193
I186
sI194
I193
sI202
I181
sI203
I202
sI204
I203
sI206
I202
sI207
I206
sI209
I202
sI210
I209
sI218
I181
sI219
I218
sI220
I219
sI222
I218
sI223
I222
sI225
I218
sI226
I225
sI234
I181
sI235
I234
sI236
I235
sI238
I234
sI239
I238
sI241
I234
sI242
I241
sI250
I181
sI251
I250
sI252
I251
sI254
I250
sI255
I254
sI257
I250
sI258
I257
sI266
I181
sI267
I266
sI268
I267
sI270
I266
sI271
I270
sI273
I266
sI274
I273
sI282
I181
sI283
I282
sI284
I283
sI286
I282
sI287
I286
sI289
I282
sI290
I289
sI298
I181
sI299
I298
sI300
I299
sI302
I298
sI303
I302
sI305
I298
sI306
I305
sI314
I1
sI315
I314
sI316
I315
sI317
I316
sI318
I316
sI319
I314
sI320
I319
sI321
I320
sI323
I319
sI324
I323
sI326
I319
sI327
I326
sI335
I314
sI336
I335
sI337
I336
sI339
I335
sI340
I339
sI342
I335
sI343
I342
sI351
I314
sI352
I351
sI353
I352
sI355
I351
sI356
I355
sI358
I351
sI359
I358
sI367
I314
sI368
I367
sI369
I368
sI371
I367
sI372
I371
sI374
I367
sI375
I374
sI383
I314
sI384
I383
sI385
I384
sI387
I383
sI388
I387
sI390
I383
sI391
I390
sI399
I314
sI400
I399
sI401
I400
sI403
I399
sI404
I403
sI406
I399
sI407
I406
sI415
I314
sI416
I415
sI417
I416
sI419
I415
sI420
I419
sI422
I415
sI423
I422
sI431
I1
sI432
I431
sI433
I432
sI434
I433
sI435
I433
sI436
I431
sI437
I436
sI438
I437
sI440
I436
sI441
I440
sI443
I436
sI444
I443
sI452
I431
sI453
I452
sI454
I453
sI456
I452
sI457
I456
sI459
I452
sI460
I459
sI468
I431
sI469
I468
sI470
I469
sI472
I468
sI473
I472
sI475
I468
sI476
I475
sI484
I431
sI485
I484
sI486
I485
sI488
I484
sI489
I488
sI491
I484
sI492
I491
sI500
I431
sI501
I500
sI502
I501
sI504
I500
sI505
I504
sI507
I500
sI508
I507
sI516
I431
sI517
I516
sI518
I517
sI520
I516
sI521
I520
sI523
I516
sI524
I523
sI532
I431
sI533
I532
sI534
I533
sI536
I532
sI537
I536
sI539
I532
sI540
I539
sI547
I1
sI548
I547
sI549
I548
sI550
I549
sI551
I549
sI552
I547
sI553
I552
sI554
I553
sI556
I552
sI557
I556
sI559
I552
sI560
I559
sI568
I547
sI569
I568
sI570
I569
sI572
I568
sI573
I572
sI575
I568
sI576
I575
sI584
I547
sI585
I584
sI586
I585
sI588
I584
sI589
I588
sI591
I584
sI592
I591
sI600
I547
sI601
I600
sI602
I601
sI604
I600
sI605
I604
sI607
I600
sI608
I607
sI616
I547
sI617
I616
sI618
I617
sI620
I616
sI621
I620
sI623
I616
sI624
I623
sI632
I547
sI633
I632
sI634
I633
sI636
I632
sI637
I636
sI639
I632
sI640
I639
sI648
I547
sI649
I648
sI650
I649
sI652
I648
sI653
I652
sI655
I648
sI656
I655
sI663
I1
sI664
I663
sI665
I664
sI666
I665
sI667
I665
sI668
I663
sI669
I668
sI670
I669
sI672
I668
sI673
I672
sI675
I668
sI676
I675
sI684
I663
sI685
I684
sI686
I685
sI688
I684
sI689
I688
sI691
I684
sI692
I691
sI700
I663
sI701
I700
sI702
I701
sI704
I700
sI705
I704
sI707
I700
sI708
I707
sI716
I663
sI717
I716
sI718
I717
sI720
I716
sI721
I720
sI723
I716
sI724
I723
sI732
I663
sI733
I732
sI734
I733
sI736
I732
sI737
I736
sI739
I732
sI740
I739
sI748
I1
sI749
I748
sI750
I749
sI751
I750
sI752
I750
sI753
I748
sI754
I753
sI755
I754
sI757
I753
sI758
I757
sI760
I753
sI761
I760
sI768
I748
sI769
I768
sI770
I769
sI772
I768
sI773
I772
sI775
I768
sI776
I775
sI783
I748
sI784
I783
sI785
I784
sI787
I783
sI788
I787
sI790
I783
sI791
I790
sI798
I748
sI799
I798
sI800
I799
sI802
I798
sI803
I802
sI805
I798
sI806
I805
ssS'_parent'
p898
(dp899
I0
NsI6
I5
sI7
I3
sI8
I4
sI9
I6
sI10
I17
sI11
I8
sI12
I10
sI13
I19
sI14
I11
sI15
I13
sI16
I813
sI17
I18
sI18
I9
sI19
I20
sI20
I12
sI21
I15
sI22
I7
sI23
I8
sI24
I10
sI25
I32
sI26
I23
sI27
I25
sI28
I34
sI29
I26
sI30
I28
sI31
I814
sI32
I33
sI33
I24
sI34
I35
sI35
I27
sI36
I30
sI37
I22
sI38
I23
sI39
I25
sI40
I47
sI41
I38
sI42
I40
sI43
I49
sI44
I41
sI45
I43
sI46
I51
sI47
I48
sI48
I39
sI49
I50
sI50
I42
sI51
I52
sI52
I45
sI53
I37
sI54
I38
sI55
I40
sI56
I63
sI57
I54
sI58
I56
sI59
I65
sI60
I57
sI61
I59
sI62
I68
sI63
I64
sI64
I55
sI65
I66
sI66
I58
sI68
I61
sI69
I53
sI70
I54
sI71
I56
sI72
I79
sI73
I70
sI74
I72
sI75
I81
sI76
I73
sI77
I75
sI78
I84
sI79
I80
sI80
I71
sI81
I82
sI82
I74
sI84
I77
sI85
I69
sI86
I70
sI87
I72
sI88
I95
sI89
I86
sI90
I88
sI91
I97
sI92
I89
sI93
I91
sI94
I100
sI95
I96
sI96
I87
sI97
I98
sI98
I90
sI100
I93
sI101
I85
sI102
I86
sI103
I88
sI104
I111
sI105
I102
sI106
I104
sI107
I113
sI108
I105
sI109
I107
sI110
I116
sI111
I112
sI112
I103
sI113
I114
sI114
I106
sI116
I109
sI117
I101
sI118
I102
sI119
I104
sI120
I127
sI121
I118
sI122
I120
sI123
I129
sI124
I121
sI125
I123
sI126
I132
sI127
I128
sI128
I119
sI129
I130
sI130
I122
sI132
I125
sI133
I117
sI134
I118
sI135
I120
sI136
I143
sI137
I134
sI138
I136
sI139
I145
sI140
I137
sI141
I139
sI142
I148
sI143
I144
sI144
I135
sI145
I146
sI146
I138
sI148
I141
sI149
I133
sI150
I134
sI151
I136
sI152
I159
sI153
I150
sI154
I152
sI155
I161
sI156
I153
sI157
I155
sI158
I164
sI159
I160
sI160
I151
sI161
I162
sI162
I154
sI164
I157
sI165
I149
sI166
I150
sI167
I152
sI168
I175
sI169
I166
sI170
I168
sI171
I177
sI172
I169
sI173
I171
sI174
I180
sI175
I176
sI176
I167
sI177
I178
sI178
I170
sI180
I173
sI181
I2
sI182
I7
sI183
I8
sI184
I9
sI185
I184
sI186
I182
sI187
I183
sI188
I185
sI189
I196
sI190
I187
sI191
I189
sI192
I198
sI193
I190
sI194
I192
sI195
I201
sI196
I197
sI197
I188
sI198
I199
sI199
I191
sI201
I194
sI202
I186
sI203
I187
sI204
I189
sI205
I212
sI206
I203
sI207
I205
sI208
I214
sI209
I206
sI210
I208
sI211
I217
sI212
I213
sI213
I204
sI214
I215
sI215
I207
sI217
I210
sI218
I202
sI219
I203
sI220
I205
sI221
I228
sI222
I219
sI223
I221
sI224
I230
sI225
I222
sI226
I224
sI227
I233
sI228
I229
sI229
I220
sI230
I231
sI231
I223
sI233
I226
sI234
I218
sI235
I219
sI236
I221
sI237
I244
sI238
I235
sI239
I237
sI240
I246
sI241
I238
sI242
I240
sI243
I249
sI244
I245
sI245
I236
sI246
I247
sI247
I239
sI249
I242
sI250
I234
sI251
I235
sI252
I237
sI253
I260
sI254
I251
sI255
I253
sI256
I262
sI257
I254
sI258
I256
sI259
I265
sI260
I261
sI261
I252
sI262
I263
sI263
I255
sI265
I258
sI266
I250
sI267
I251
sI268
I253
sI269
I276
sI270
I267
sI271
I269
sI272
I278
sI273
I270
sI274
I272
sI275
I281
sI276
I277
sI277
I268
sI278
I279
sI279
I271
sI281
I274
sI282
I266
sI283
I267
sI284
I269
sI285
I292
sI286
I283
sI287
I285
sI288
I294
sI289
I286
sI290
I288
sI291
I297
sI292
I293
sI293
I284
sI294
I295
sI295
I287
sI297
I290
sI298
I282
sI299
I283
sI300
I285
sI301
I308
sI302
I299
sI303
I301
sI304
I310
sI305
I302
sI306
I304
sI307
I313
sI308
I309
sI309
I300
sI310
I311
sI311
I303
sI313
I306
sI314
I2
sI315
I22
sI316
I23
sI317
I24
sI318
I317
sI319
I315
sI320
I316
sI321
I318
sI322
I329
sI323
I320
sI324
I322
sI325
I331
sI326
I323
sI327
I325
sI328
I334
sI329
I330
sI330
I321
sI331
I332
sI332
I324
sI334
I327
sI335
I319
sI336
I320
sI337
I322
sI338
I345
sI339
I336
sI340
I338
sI341
I347
sI342
I339
sI343
I341
sI344
I350
sI345
I346
sI346
I337
sI347
I348
sI348
I340
sI350
I343
sI351
I335
sI352
I336
sI353
I338
sI354
I361
sI355
I352
sI356
I354
sI357
I363
sI358
I355
sI359
I357
sI360
I366
sI361
I362
sI362
I353
sI363
I364
sI364
I356
sI366
I359
sI367
I351
sI368
I352
sI369
I354
sI370
I377
sI371
I368
sI372
I370
sI373
I379
sI374
I371
sI375
I373
sI376
I382
sI377
I378
sI378
I369
sI379
I380
sI380
I372
sI382
I375
sI383
I367
sI384
I368
sI385
I370
sI386
I393
sI387
I384
sI388
I386
sI389
I395
sI390
I387
sI391
I389
sI392
I398
sI393
I394
sI394
I385
sI395
I396
sI396
I388
sI398
I391
sI399
I383
sI400
I384
sI401
I386
sI402
I409
sI403
I400
sI404
I402
sI405
I411
sI406
I403
sI407
I405
sI408
I414
sI409
I410
sI410
I401
sI411
I412
sI412
I404
sI414
I407
sI415
I399
sI416
I400
sI417
I402
sI418
I425
sI419
I416
sI420
I418
sI421
I427
sI422
I419
sI423
I421
sI424
I430
sI425
I426
sI426
I417
sI427
I428
sI428
I420
sI430
I423
sI431
I181
sI432
I182
sI433
I183
sI434
I184
sI435
I434
sI436
I432
sI437
I433
sI438
I435
sI439
I446
sI440
I437
sI441
I439
sI442
I448
sI443
I440
sI444
I442
sI445
I451
sI446
I447
sI447
I438
sI448
I449
sI449
I441
sI451
I444
sI452
I436
sI453
I437
sI454
I439
sI455
I462
sI456
I453
sI457
I455
sI458
I464
sI459
I456
sI460
I458
sI461
I467
sI462
I463
sI463
I454
sI464
I465
sI465
I457
sI467
I460
sI468
I452
sI469
I453
sI470
I455
sI471
I478
sI472
I469
sI473
I471
sI474
I480
sI475
I472
sI476
I474
sI477
I483
sI478
I479
sI479
I470
sI480
I481
sI481
I473
sI483
I476
sI484
I468
sI485
I469
sI486
I471
sI487
I494
sI488
I485
sI489
I487
sI490
I496
sI491
I488
sI492
I490
sI493
I499
sI494
I495
sI495
I486
sI496
I497
sI497
I489
sI499
I492
sI500
I484
sI501
I485
sI502
I487
sI503
I510
sI504
I501
sI505
I503
sI506
I512
sI507
I504
sI508
I506
sI509
I515
sI510
I511
sI511
I502
sI512
I513
sI513
I505
sI515
I508
sI516
I500
sI517
I501
sI518
I503
sI519
I526
sI520
I517
sI521
I519
sI522
I528
sI523
I520
sI524
I522
sI525
I531
sI526
I527
sI527
I518
sI528
I529
sI529
I521
sI531
I524
sI532
I516
sI533
I517
sI534
I519
sI535
I542
sI536
I533
sI537
I535
sI538
I544
sI539
I536
sI540
I538
sI541
I546
sI542
I543
sI543
I534
sI544
I545
sI545
I537
sI546
I540
sI547
I2
sI548
I37
sI549
I38
sI550
I39
sI551
I550
sI552
I548
sI553
I549
sI554
I551
sI555
I562
sI556
I553
sI557
I555
sI558
I564
sI559
I556
sI560
I558
sI561
I567
sI562
I563
sI563
I554
sI564
I565
sI565
I557
sI567
I560
sI568
I552
sI569
I553
sI570
I555
sI571
I578
sI572
I569
sI573
I571
sI574
I580
sI575
I572
sI576
I574
sI577
I583
sI578
I579
sI579
I570
sI580
I581
sI581
I573
sI583
I576
sI584
I568
sI585
I569
sI586
I571
sI587
I594
sI588
I585
sI589
I587
sI590
I596
sI591
I588
sI592
I590
sI593
I599
sI594
I595
sI595
I586
sI596
I597
sI597
I589
sI599
I592
sI600
I584
sI601
I585
sI602
I587
sI603
I610
sI604
I601
sI605
I603
sI606
I612
sI607
I604
sI608
I606
sI609
I615
sI610
I611
sI611
I602
sI612
I613
sI613
I605
sI615
I608
sI616
I600
sI617
I601
sI618
I603
sI619
I626
sI620
I617
sI621
I619
sI622
I628
sI623
I620
sI624
I622
sI625
I631
sI626
I627
sI627
I618
sI628
I629
sI629
I621
sI631
I624
sI632
I616
sI633
I617
sI634
I619
sI635
I642
sI636
I633
sI637
I635
sI638
I644
sI639
I636
sI640
I638
sI641
I647
sI642
I643
sI643
I634
sI644
I645
sI645
I637
sI647
I640
sI648
I632
sI649
I633
sI650
I635
sI651
I658
sI652
I649
sI653
I651
sI654
I660
sI655
I652
sI656
I654
sI657
I662
sI658
I659
sI659
I650
sI660
I661
sI661
I653
sI662
I656
sI663
I2
sI664
I53
sI665
I54
sI666
I55
sI667
I666
sI668
I664
sI669
I665
sI670
I667
sI671
I678
sI672
I669
sI673
I671
sI674
I680
sI675
I672
sI676
I674
sI677
I683
sI678
I679
sI679
I670
sI680
I681
sI681
I673
sI683
I676
sI684
I668
sI685
I669
sI686
I671
sI687
I694
sI688
I685
sI689
I687
sI690
I696
sI691
I688
sI692
I690
sI693
I699
sI694
I695
sI695
I686
sI696
I697
sI697
I689
sI699
I692
sI700
I684
sI701
I685
sI702
I687
sI703
I710
sI704
I701
sI705
I703
sI706
I712
sI707
I704
sI708
I706
sI709
I715
sI710
I711
sI711
I702
sI712
I713
sI713
I705
sI715
I708
sI716
I700
sI717
I701
sI718
I703
sI719
I726
sI720
I717
sI721
I719
sI722
I728
sI723
I720
sI724
I722
sI725
I731
sI726
I727
sI727
I718
sI728
I729
sI729
I721
sI731
I724
sI732
I716
sI733
I717
sI734
I719
sI735
I742
sI736
I733
sI737
I735
sI738
I744
sI739
I736
sI740
I738
sI741
I747
sI742
I743
sI743
I734
sI744
I745
sI745
I737
sI747
I740
sI748
I314
sI749
I315
sI750
I316
sI751
I317
sI752
I751
sI753
I749
sI754
I750
sI755
I752
sI756
I763
sI757
I754
sI758
I756
sI759
I765
sI760
I757
sI761
I759
sI762
I767
sI763
I764
sI764
I755
sI765
I766
sI766
I758
sI767
I761
sI768
I753
sI769
I754
sI770
I756
sI771
I778
sI772
I769
sI773
I771
sI774
I780
sI775
I772
sI776
I774
sI777
I782
sI778
I779
sI779
I770
sI780
I781
sI781
I773
sI782
I776
sI783
I768
sI784
I769
sI785
I771
sI786
I793
sI787
I784
sI788
I786
sI789
I795
sI790
I787
sI791
I789
sI792
I797
sI793
I794
sI794
I785
sI795
I796
sI796
I788
sI797
I791
sI798
I783
sI799
I784
sI800
I786
sI801
I808
sI802
I799
sI803
I801
sI804
I810
sI805
I802
sI806
I804
sI807
I812
sI808
I809
sI809
I800
sI810
I811
sI811
I803
sI812
I806
sI813
I21
sI814
I36
ssS'_graph_properties'
p900
(dp901
sS'_properties'
p902
(dp903
S'diameter'
p904
(dp905
I517
cnumpy.core.multiarray
scalar
p906
(cnumpy
dtype
p907
(S'f8'
I0
I1
tRp908
(I3
S'<'
NNNI-1
I-1
I0
tbS'\x1f\xfc\xc7 #\x97o?'
tRp909
sI8
g906
(g908
S'\x9e~W+\x01dr?'
tRp910
sI11
F0.0030000000000000001
sI533
g906
(g908
S'*I\n\x03\xdb\x88q?'
tRp911
sI23
g906
(g908
S'\x9e~W+\x01dr?'
tRp912
sI536
g906
(g908
S'\x9d~W+\x01dr?'
tRp913
sI26
F0.0030000000000000001
sI38
g906
(g908
S'\x9e~W+\x01dr?'
tRp914
sI41
g906
(g908
S'\x9e~W+\x01dr?'
tRp915
sI556
g906
(g908
S'\x9e~W+\x01dr?'
tRp916
sI520
g906
(g908
S'\x9d~W+\x01dr?'
tRp917
sI54
g906
(g908
S'\x9e~W+\x01dr?'
tRp918
sI57
g906
(g908
S'\x9e~W+\x01dr?'
tRp919
sI572
g906
(g908
S'\x9d~W+\x01dr?'
tRp920
sI70
g906
(g908
S'\x9e~W+\x01dr?'
tRp921
sI585
g906
(g908
S'\x00\x00\x00\x00\x00\x00\x00\x00'
tRp922
sI588
g906
(g908
S'\x9d~W+\x01dr?'
tRp923
sI89
g906
(g908
S'\x9e~W+\x01dr?'
tRp924
sI86
g906
(g908
S'\x9e~W+\x01dr?'
tRp925
sI601
g906
(g908
S'\xbed\xcf\x00\x9b\x11f?'
tRp926
sI604
g906
(g908
S'\x9d~W+\x01dr?'
tRp927
sI102
g906
(g908
S'\x9e~W+\x01dr?'
tRp928
sI617
g906
(g908
S'\x8a\\t\xfbX\x88j?'
tRp929
sI620
g906
(g908
S'\x9d~W+\x01dr?'
tRp930
sI118
g906
(g908
S'\x9e~W+\x01dr?'
tRp931
sI105
g906
(g908
S'\x9e~W+\x01dr?'
tRp932
sI121
g906
(g908
S'\x9e~W+\x01dr?'
tRp933
sI636
g906
(g908
S'\x9d~W+\x01dr?'
tRp934
sI134
g906
(g908
S'\x9e~W+\x01dr?'
tRp935
sI137
g906
(g908
S'\x9e~W+\x01dr?'
tRp936
sI652
g906
(g908
S'\x9d~W+\x01dr?'
tRp937
sI150
g906
(g908
S'\x9e~W+\x01dr?'
tRp938
sI153
g906
(g908
S'\x9e~W+\x01dr?'
tRp939
sI669
g906
(g908
S'\x00\x00\x00\x00\x00\x00\x00\x00'
tRp940
sI672
g906
(g908
S'\x9e~W+\x01dr?'
tRp941
sI166
g906
(g908
S'\x9e~W+\x01dr?'
tRp942
sI169
g906
(g908
S'\x9e~W+\x01dr?'
tRp943
sI685
g906
(g908
S'\x00\x00\x00\x00\x00\x00\x00\x00'
tRp944
sI688
g906
(g908
S'\x9d~W+\x01dr?'
tRp945
sI187
g906
(g908
S'\x00\x00\x00\x00\x00\x00\x00\x00'
tRp946
sI701
g906
(g908
S'\xbed\xcf\x00\x9b\x11f?'
tRp947
sI190
g906
(g908
S'\x9e~W+\x01dr?'
tRp948
sI704
g906
(g908
S'\x9d~W+\x01dr?'
tRp949
sI203
g906
(g908
S'\x00\x00\x00\x00\x00\x00\x00\x00'
tRp950
sI717
g906
(g908
S'\xff\x7f4yC\x81h?'
tRp951
sI206
g906
(g908
S'\x9e~W+\x01dr?'
tRp952
sI720
g906
(g908
S'\x9d~W+\x01dr?'
tRp953
sI633
g906
(g908
S'\x1f\xfc\xc7 #\x97o?'
tRp954
sI219
g906
(g908
S'\x00\x00\x00\x00\x00\x00\x00\x00'
tRp955
sI733
g906
(g908
S'\x83W\xe3a6\x16n?'
tRp956
sI222
g906
(g908
S'\x9e~W+\x01dr?'
tRp957
sI736
g906
(g908
S'\x9d~W+\x01dr?'
tRp958
sI235
g906
(g908
S'\x00\x00\x00\x00\x00\x00\x00\x00'
tRp959
sI238
g906
(g908
S'\x9d~W+\x01dr?'
tRp960
sI754
g906
(g908
S'\x00\x00\x00\x00\x00\x00\x00\x00'
tRp961
sI757
g906
(g908
S'\x9e~W+\x01dr?'
tRp962
sI553
g906
(g908
S'\x00\x00\x00\x00\x00\x00\x00\x00'
tRp963
sI251
g906
(g908
S'\xbed\xcf\x00\x9b\x11f?'
tRp964
sI254
g906
(g908
S'\x9d~W+\x01dr?'
tRp965
sI769
g906
(g908
S'\x00\x00\x00\x00\x00\x00\x00\x00'
tRp966
sI772
g906
(g908
S'\x9d~W+\x01dr?'
tRp967
sI267
g906
(g908
S'.\xbe\xab\x0c?zh?'
tRp968
sI270
g906
(g908
S'\x9d~W+\x01dr?'
tRp969
sI784
g906
(g908
S'\xbed\xcf\x00\x9b\x11f?'
tRp970
sI787
g906
(g908
S'\x9d~W+\x01dr?'
tRp971
sI283
g906
(g908
S'.\xf7O\xeb\xee\x10n?'
tRp972
sI286
g906
(g908
S'\x9d~W+\x01dr?'
tRp973
sI799
g906
(g908
S'\xff\x7f4yC\x81h?'
tRp974
sI802
g906
(g908
S'\x9d~W+\x01dr?'
tRp975
sI299
g906
(g908
S'j\x93\xf6\xc4\xb3\tq?'
tRp976
sI302
g906
(g908
S'\x9d~W+\x01dr?'
tRp977
sI649
g906
(g908
S'*I\n\x03\xdb\x88q?'
tRp978
sI320
g906
(g908
S'\x00\x00\x00\x00\x00\x00\x00\x00'
tRp979
sI323
g906
(g908
S'\x9e~W+\x01dr?'
tRp980
sI336
g906
(g908
S'\x00\x00\x00\x00\x00\x00\x00\x00'
tRp981
sI339
g906
(g908
S'\x9e~W+\x01dr?'
tRp982
sI569
g906
(g908
S'\x00\x00\x00\x00\x00\x00\x00\x00'
tRp983
sI352
g906
(g908
S'\x00\x00\x00\x00\x00\x00\x00\x00'
tRp984
sI355
g906
(g908
S'\x9d~W+\x01dr?'
tRp985
sI368
g906
(g908
S'\x00\x00\x00\x00\x00\x00\x00\x00'
tRp986
sI371
g906
(g908
S'\x9d~W+\x01dr?'
tRp987
sI384
g906
(g908
S'\xbed\xcf\x00\x9b\x11f?'
tRp988
sI387
g906
(g908
S'\x9d~W+\x01dr?'
tRp989
sI400
g906
(g908
S'\xa0\xd9\xd2v\xe7bl?'
tRp990
sI403
g906
(g908
S'\x9d~W+\x01dr?'
tRp991
sI416
g906
(g908
S'\x9d\xa0el\xc4up?'
tRp992
sI419
g906
(g908
S'\x9d~W+\x01dr?'
tRp993
sI437
g906
(g908
S'\x00\x00\x00\x00\x00\x00\x00\x00'
tRp994
sI73
g906
(g908
S'\x9e~W+\x01dr?'
tRp995
sI440
g906
(g908
S'\x9e~W+\x01dr?'
tRp996
sI453
g906
(g908
S'\x00\x00\x00\x00\x00\x00\x00\x00'
tRp997
sI456
g906
(g908
S'\x9d~W+\x01dr?'
tRp998
sI469
g906
(g908
S'\x00\x00\x00\x00\x00\x00\x00\x00'
tRp999
sI472
g906
(g908
S'\x9d~W+\x01dr?'
tRp1000
sI485
g906
(g908
S'\xbed\xcf\x00\x9b\x11f?'
tRp1001
sI488
g906
(g908
S'\x9d~W+\x01dr?'
tRp1002
sI501
g906
(g908
S'\x8a\\t\xfbX\x88j?'
tRp1003
sI504
g906
(g908
S'\x9d~W+\x01dr?'
tRp1004
ssS'shape_max_width'
p1005
(dp1006
I257
g906
(g908
S'iR:\xfcU\xfe\x7f?'
tRp1007
sI790
g906
(g908
S'l\x1c"+;\xbay?'
tRp1008
sI390
g906
(g908
S'\x8a\x86\x92&\xd0\xec\x80?'
tRp1009
sI775
g906
(g908
S"g\xef\x8d'z\x81t?"
tRp1010
sI44
g906
(g908
S'@\xc3\x91P\xbb\xd2n?'
tRp1011
sI523
g906
(g908
S'\xbbQ\xef\x1a?\xb2\x84?'
tRp1012
sI140
g906
(g908
S'\n\xd7V\xc6^\x0f\x86?'
tRp1013
sI14
F0.0030000000000000001
sI655
g906
(g908
S'<h\xb9\x9c\x9fN\x87?'
tRp1014
sI273
g906
(g908
S'6;%\x99\xde\x15\x82?'
tRp1015
sI406
g906
(g908
S'\xe1\xef\xb7\x0b\xed>\x83?'
tRp1016
sI539
g906
(g908
S'<h\xb9\x9c\x9fN\x87?'
tRp1017
sI156
g906
(g908
S'\x05n\xa3I2\xd1\x88?'
tRp1018
sI29
F0.0033
sI289
g906
(g908
S'7M-4\x92,\x84?'
tRp1019
sI675
g906
(g908
S'\xc8\x84\xf3Gr\x91n?'
tRp1020
sI805
g906
(g908
S'nI\xb6.\xfc\xf2~?'
tRp1021
sI422
g906
(g908
S'7Y\xdd\xf0\t\x91\x85?'
tRp1022
sI172
g906
(g908
S'q\xdex\xdaZ\xba\x8a?'
tRp1023
sI559
g906
(g908
S'\xc9\x84\xf3Gr\x91n?'
tRp1024
sI305
g906
(g908
S'7_5\xcfEC\x86?'
tRp1025
sI691
g906
(g908
S"g\xef\x8d'z\x81t?"
tRp1026
sI443
g906
(g908
S'\xc9\x84\xf3Gr\x91n?'
tRp1027
sI60
g906
(g908
S'\x9d\x1f\xa8J[\xcdp?'
tRp1028
sI575
g906
(g908
S"g\xef\x8d'z\x81t?"
tRp1029
sI193
g906
(g908
S'\xc9\x84\xf3Gr\x91n?'
tRp1030
sI707
g906
(g908
S'l\x1c"+;\xbay?'
tRp1031
sI326
g906
(g908
S'\xc9\x84\xf3Gr\x91n?'
tRp1032
sI459
g906
(g908
S"g\xef\x8d'z\x81t?"
tRp1033
sI76
g906
(g908
S'f\xba?@B\xa0s?'
tRp1034
sI591
g906
(g908
S'l\x1c"+;\xbay?'
tRp1035
sI209
g906
(g908
S'f\xe6\tZ vs?'
tRp1036
sI723
g906
(g908
S'nI\xb6.\xfc\xf2~?'
tRp1037
sI342
g906
(g908
S'\x11\x95D\xee\xf2\xecs?'
tRp1038
sI475
g906
(g908
S'l\x1c"+;\xbay?'
tRp1039
sI92
g906
(g908
S',\xcd?G}\x1fw?'
tRp1040
sI607
g906
(g908
S'qI\xb6.\xfc\xf2~?'
tRp1041
sI225
g906
(g908
S'g\n\x1a\x90\x87\xa3w?'
tRp1042
sI739
g906
(g908
S'8;%\x99\xde\x15\x82?'
tRp1043
sI358
g906
(g908
S'\xbeg\x8f\xb8,\x91x?'
tRp1044
sI491
g906
(g908
S'qI\xb6.\xfc\xf2~?'
tRp1045
sI108
g906
(g908
S's\xa6(n\xbc\xc8{?'
tRp1046
sI623
g906
(g908
S':;%\x99\xde\x15\x82?'
tRp1047
sI241
g906
(g908
S'i.*\xc6\xee\xd0{?'
tRp1048
sI374
g906
(g908
S'i:\xda\x82f5}?'
tRp1049
sI760
g906
(g908
S'\xc8\x84\xf3Gr\x91n?'
tRp1050
sI507
g906
(g908
S':;%\x99\xde\x15\x82?'
tRp1051
sI124
g906
(g908
S'\x17g\x87\x89d\xb6\x81?'
tRp1052
sI639
g906
(g908
S'\xbbQ\xef\x1a?\xb2\x84?'
tRp1053
ssS'rolled_length'
p1054
(dp1055
I257
g906
(g908
S'\x00\x00\x00\x00\x00\x00\x00\x00'
tRp1056
sI790
g906
(g908
S'\x00\x00\x00\x00\x00\x00\x00\x00'
tRp1057
sI390
g906
(g908
S'\xd0T\x88\xcd\x9e\x0fP?'
tRp1058
sI775
g906
(g908
S'\x00\x00\x00\x00\x00\x00\x00\x00'
tRp1059
sI44
g906
(g908
S'\x00\x00\x00\x00\x00\x00\x00\x00'
tRp1060
sI523
g906
(g908
S'\x00\x00\x00\x00\x00\x00\x00\x00'
tRp1061
sI140
g906
(g908
S'\x00\x00\x00\x00\x00\x00\x00\x00'
tRp1062
sI14
g906
(g908
S'\x00\x00\x00\x00\x00\x00\x00\x00'
tRp1063
sI655
g906
(g908
S'\x00\x00\x00\x00\x00\x00\x00\x00'
tRp1064
sI273
g906
(g908
S'\x00\x00\x00\x00\x00\x00\x00\x00'
tRp1065
sI406
g906
(g908
S'\x00\x00\x00\x00\x00\x00\x00\x00'
tRp1066
sI539
g906
(g908
S'\x00\x00\x00\x00\x00\x00\x00\x00'
tRp1067
sI156
g906
(g908
S'\x00\x00\x00\x00\x00\x00\x00\x00'
tRp1068
sI29
g906
(g908
S'\x00\x00\x00\x00\x00\x00\x00\x00'
tRp1069
sI289
g906
(g908
S'\x00\x00\x00\x00\x00\x00\x00\x00'
tRp1070
sI675
g906
(g908
S'\x00\x00\x00\x00\x00\x00\x00\x00'
tRp1071
sI805
g906
(g908
S'\x00\x00\x00\x00\x00\x00\x00\x00'
tRp1072
sI422
g906
(g908
S'\x00\x00\x00\x00\x00\x00\x00\x00'
tRp1073
sI172
g906
(g908
S'\x00\x00\x00\x00\x00\x00\x00\x00'
tRp1074
sI559
g906
(g908
S'\x00\x00\x00\x00\x00\x00\x00\x00'
tRp1075
sI305
g906
(g908
S'\x00\x00\x00\x00\x00\x00\x00\x00'
tRp1076
sI691
g906
(g908
S'\x00\x00\x00\x00\x00\x00\x00\x00'
tRp1077
sI443
g906
(g908
S'\x00\x00\x00\x00\x00\x00\x00\x00'
tRp1078
sI60
g906
(g908
S'\x00\x00\x00\x00\x00\x00\x00\x00'
tRp1079
sI575
g906
(g908
S'\x00\x00\x00\x00\x00\x00\x00\x00'
tRp1080
sI193
g906
(g908
S'\x00\x00\x00\x00\x00\x00\x00\x00'
tRp1081
sI707
g906
(g908
S'@`\\\xe4\xd5|}?'
tRp1082
sI326
g906
(g908
S'\x00\x00\x00\x00\x00\x00\x00\x00'
tRp1083
sI459
g906
(g908
S'\x00\x00\x00\x00\x00\x00\x00\x00'
tRp1084
sI76
g906
(g908
S'\x00\x00\x00\x00\x00\x00\x00\x00'
tRp1085
sI591
g906
(g908
S'\x00\x00\x00\x00\x00\x00\x00\x00'
tRp1086
sI209
g906
(g908
S'\x00\x00\x00\x00\x00\x00\x00\x00'
tRp1087
sI723
g906
(g908
S'\x00\x00\x00\x00\x00\x00\x00\x00'
tRp1088
sI342
g906
(g908
S'\x00\x00\x00\x00\x00\x00\x00\x00'
tRp1089
sI475
g906
(g908
S'\x00\x00\x00\x00\x00\x00\x00\x00'
tRp1090
sI92
g906
(g908
S'\x00\x00\x00\x00\x00\x00\x00\x00'
tRp1091
sI607
g906
(g908
S'\x00\x00\x00\x00\x00\x00\x00\x00'
tRp1092
sI225
g906
(g908
S'\x00\x00\x00\x00\x00\x00\x00\x00'
tRp1093
sI739
g906
(g908
S'\x00\x00\x00\x00\x00\x00\x00\x00'
tRp1094
sI358
g906
(g908
S'\x00\x00\x00\x00\x00\x00\x00\x00'
tRp1095
sI491
g906
(g908
S'\x00\x00\x00\x00\x00\x00\x00\x00'
tRp1096
sI108
g906
(g908
S'\x00\x00\x00\x00\x00\x00\x00\x00'
tRp1097
sI623
g906
(g908
S'\x00\x00\x00\x00\x00\x00\x00\x00'
tRp1098
sI241
g906
(g908
S'\x00\x00\x00\x00\x00\x00\x00\x00'
tRp1099
sI374
g906
(g908
S'\x00\x00\x00\x00\x00\x00\x00\x00'
tRp1100
sI760
g906
(g908
S'\x00\x00\x00\x00\x00\x00\x00\x00'
tRp1101
sI507
g906
(g908
S'\x00\x00\x00\x00\x00\x00\x00\x00'
tRp1102
sI124
g906
(g908
S'\x00\x00\x00\x00\x00\x00\x00\x00'
tRp1103
sI639
g906
(g908
S'\x00\x00\x00\x00\x00\x00\x00\x00'
tRp1104
ssS'L_shape'
p1105
(dp1106
I768
g906
(g908
S'\x0c\x1d\x88\xe0\x02\t\xb8?'
tRp1107
sI516
g906
(g908
S'{F\xb8jCJ\xc9?'
tRp1108
sI133
g906
(g908
S'\xa71|)\x9f\xed\xc4?'
tRp1109
sI7
g906
(g908
S'i\xd2 \x93P\x9c\xb4?'
tRp1110
sI648
g906
(g908
S'\n\xef\x1e\\\xdd\xb9\xca?'
tRp1111
sI266
g906
(g908
S'q%\x95\xdd\xc7\xc4\xc3?'
tRp1112
sI399
g906
(g908
S'\xd7\xfb\x8f\x9d\x10\xd7\xc6?'
tRp1113
sI532
g906
(g908
S'\n\xef\x1e\\\xdd\xb9\xca?'
tRp1114
sI149
g906
(g908
S'\xf3\xf4\x89\xe2\x98\xfa\xc8?'
tRp1115
sI22
g906
(g908
S'G\xc1i\r;\x8c\xb7?'
tRp1116
sI282
g906
(g908
S'\n\xc5\x93\xf3*,\xc8?'
tRp1117
sI668
g906
(g908
S'\xa3p=\n\xd7\xa3\xb0?'
tRp1118
sI798
g906
(g908
S'\xcd\x98\xec\xe4\xf9\xc9\xc3?'
tRp1119
sI415
g906
(g908
S'\x9a\xefy7U\x1b\xca?'
tRp1120
sI165
g906
(g908
S'\x92\xd4A\x89\xb7\x19\xcb?'
tRp1121
sI552
g906
(g908
S'\xa3p=\n\xd7\xa3\xb0?'
tRp1122
sI298
g906
(g908
S'gL)\xc4n\x98\xca?'
tRp1123
sI684
g906
(g908
S'\x0c\x1d\x88\xe0\x02\t\xb8?'
tRp1124
sI436
g906
(g908
S'\xa3p=\n\xd7\xa3\xb0?'
tRp1125
sI53
g906
(g908
S'cr,\xde\xd91\xb8?'
tRp1126
sI568
g906
(g908
S'\xbf\x1c\x06\x85\x82,\xb6?'
tRp1127
sI186
g906
(g908
S'\xa6p=\n\xd7\xa3\xb0?'
tRp1128
sI351
g906
(g908
S'~:\xf6Oq{\xb9?'
tRp1129
sI700
g906
(g908
S'q\xb9+\xb7Ch\xbf?'
tRp1130
sI319
g906
(g908
S'\xa8p=\n\xd7\xa3\xb0?'
tRp1131
sI452
g906
(g908
S'\xbf\x1c\x06\x85\x82,\xb6?'
tRp1132
sI69
g906
(g908
S'\xd7Z:1T4\xb8?'
tRp1133
sI584
g906
(g908
S'\xda\xc8\xce\xff-\xb5\xbb?'
tRp1134
sI202
g906
(g908
S'\xe1\xb9\xf2:(R\xb4?'
tRp1135
sI716
g906
(g908
S'\xcd\x98\xec\xe4\xf9\xc9\xc3?'
tRp1136
sI335
g906
(g908
S'\x93\xd5\x19-\xa4\x0f\xb5?'
tRp1137
sI468
g906
(g908
S'\xda\xc8\xce\xff-\xb5\xbb?'
tRp1138
sI85
g906
(g908
S'R}4\x0f\\\xe5\xb9?'
tRp1139
sI600
g906
(g908
S'\x9akh.\x1e\xd6\xc0?'
tRp1140
sI218
g906
(g908
S'\x1c\x03\xa8ky\x00\xb8?'
tRp1141
sI783
g906
(g908
S'q\xb9+\xb7Ch\xbf?'
tRp1142
sI732
g906
(g908
S'\\\xd5\xe4{=0\xc8?'
tRp1143
sI37
g906
(g908
S'\x85\x85\xda\xab4\x9d\xb8?'
tRp1144
sI484
g906
(g908
S'\x9akh.\x1e\xd6\xc0?'
tRp1145
sI101
g906
(g908
S'[\xf4\xddgoT\xbd?'
tRp1146
sI616
g906
(g908
S'\n\xc7FF\xcfY\xc5?'
tRp1147
sI234
g906
(g908
S'WL]\x9c\xca\xae\xbb?'
tRp1148
sI367
g906
(g908
S'i\x9f\xd2r>\xe7\xbd?'
tRp1149
sI753
g906
(g908
S'\xa3p=\n\xd7\xa3\xb0?'
tRp1150
sI500
g906
(g908
S'\n\xc7FF\xcfY\xc5?'
tRp1151
sI117
g906
(g908
S'/\xb9\xb2\xa7fH\xc1?'
tRp1152
sI632
g906
(g908
S'{F\xb8jCJ\xc9?'
tRp1153
sI250
g906
(g908
S'3C;\xab\xf1a\xbf?'
tRp1154
sI383
g906
(g908
S'H\xa35\x1f\xb6;\xc2?'
tRp1155
ssS'd_rolled'
p1156
(dp1157
I51
I0
sI813
I0
sI814
I0
ssS'edge_type'
p1158
(dp1159
I1
S'/'
sI2
S'/'
sI3
S'/'
sI4
S'/'
sI5
S'/'
sI6
S'<'
sI7
S'<'
sI8
S'<'
sI9
S'<'
sI10
S'<'
sI11
S'+'
sI12
S'+'
sI13
S'<'
sI14
S'<'
sI15
S'<'
sI16
S'<'
sI17
S'<'
sI18
S'<'
sI19
S'<'
sI20
S'<'
sI21
S'<'
sI22
S'<'
sI23
S'<'
sI24
S'<'
sI25
S'<'
sI26
S'+'
sI27
S'+'
sI28
S'<'
sI29
S'<'
sI30
S'<'
sI31
S'<'
sI32
S'<'
sI33
S'<'
sI34
S'<'
sI35
S'<'
sI36
S'<'
sI37
S'<'
sI38
S'<'
sI39
S'<'
sI40
S'<'
sI41
S'+'
sI42
S'+'
sI43
S'<'
sI44
S'<'
sI45
S'<'
sI46
S'<'
sI47
S'<'
sI48
S'<'
sI49
S'<'
sI50
S'<'
sI51
S'<'
sI52
S'<'
sI53
S'<'
sI54
S'<'
sI55
S'<'
sI56
S'<'
sI57
S'+'
sI58
S'+'
sI59
S'<'
sI60
S'<'
sI61
S'<'
sI62
S'<'
sI63
S'<'
sI64
S'<'
sI65
S'<'
sI66
S'<'
sI68
S'<'
sI69
S'<'
sI70
S'<'
sI71
S'<'
sI72
S'<'
sI73
S'+'
sI74
S'+'
sI75
S'<'
sI76
S'<'
sI77
S'<'
sI78
S'<'
sI79
S'<'
sI80
S'<'
sI81
S'<'
sI82
S'<'
sI84
S'<'
sI85
S'<'
sI86
S'<'
sI87
S'<'
sI88
S'<'
sI89
S'+'
sI90
S'+'
sI91
S'<'
sI92
S'<'
sI93
S'<'
sI94
S'<'
sI95
S'<'
sI96
S'<'
sI97
S'<'
sI98
S'<'
sI100
S'<'
sI101
S'<'
sI102
S'<'
sI103
S'<'
sI104
S'<'
sI105
S'+'
sI106
S'+'
sI107
S'<'
sI108
S'<'
sI109
S'<'
sI110
S'<'
sI111
S'<'
sI112
S'<'
sI113
S'<'
sI114
S'<'
sI116
S'<'
sI117
S'<'
sI118
S'<'
sI119
S'<'
sI120
S'<'
sI121
S'+'
sI122
S'+'
sI123
S'<'
sI124
S'<'
sI125
S'<'
sI126
S'<'
sI127
S'<'
sI128
S'<'
sI129
S'<'
sI130
S'<'
sI132
S'<'
sI133
S'<'
sI134
S'<'
sI135
S'<'
sI136
S'<'
sI137
S'+'
sI138
S'+'
sI139
S'<'
sI140
S'<'
sI141
S'<'
sI142
S'<'
sI143
S'<'
sI144
S'<'
sI145
S'<'
sI146
S'<'
sI148
S'<'
sI149
S'<'
sI150
S'<'
sI151
S'<'
sI152
S'<'
sI153
S'+'
sI154
S'+'
sI155
S'<'
sI156
S'<'
sI157
S'<'
sI158
S'<'
sI159
S'<'
sI160
S'<'
sI161
S'<'
sI162
S'<'
sI164
S'<'
sI165
S'<'
sI166
S'<'
sI167
S'<'
sI168
S'<'
sI169
S'+'
sI170
S'+'
sI171
S'<'
sI172
S'<'
sI173
S'<'
sI174
S'<'
sI175
S'<'
sI176
S'<'
sI177
S'<'
sI178
S'<'
sI180
S'<'
sI181
S'+'
sI182
S'+'
sI183
S'+'
sI184
S'+'
sI185
S'<'
sI186
S'<'
sI187
S'<'
sI188
S'<'
sI189
S'<'
sI190
S'+'
sI191
S'+'
sI192
S'<'
sI193
S'<'
sI194
S'<'
sI195
S'<'
sI196
S'<'
sI197
S'<'
sI198
S'<'
sI199
S'<'
sI201
S'<'
sI202
S'<'
sI203
S'<'
sI204
S'<'
sI205
S'<'
sI206
S'+'
sI207
S'+'
sI208
S'<'
sI209
S'<'
sI210
S'<'
sI211
S'<'
sI212
S'<'
sI213
S'<'
sI214
S'<'
sI215
S'<'
sI217
S'<'
sI218
S'<'
sI219
S'<'
sI220
S'<'
sI221
S'<'
sI222
S'+'
sI223
S'+'
sI224
S'<'
sI225
S'<'
sI226
S'<'
sI227
S'<'
sI228
S'<'
sI229
S'<'
sI230
S'<'
sI231
S'<'
sI233
S'<'
sI234
S'<'
sI235
S'<'
sI236
S'<'
sI237
S'<'
sI238
S'+'
sI239
S'+'
sI240
S'<'
sI241
S'<'
sI242
S'<'
sI243
S'<'
sI244
S'<'
sI245
S'<'
sI246
S'<'
sI247
S'<'
sI249
S'<'
sI250
S'<'
sI251
S'<'
sI252
S'<'
sI253
S'<'
sI254
S'+'
sI255
S'+'
sI256
S'<'
sI257
S'<'
sI258
S'<'
sI259
S'<'
sI260
S'<'
sI261
S'<'
sI262
S'<'
sI263
S'<'
sI265
S'<'
sI266
S'<'
sI267
S'<'
sI268
S'<'
sI269
S'<'
sI270
S'+'
sI271
S'+'
sI272
S'<'
sI273
S'<'
sI274
S'<'
sI275
S'<'
sI276
S'<'
sI277
S'<'
sI278
S'<'
sI279
S'<'
sI281
S'<'
sI282
S'<'
sI283
S'<'
sI284
S'<'
sI285
S'<'
sI286
S'+'
sI287
S'+'
sI288
S'<'
sI289
S'<'
sI290
S'<'
sI291
S'<'
sI292
S'<'
sI293
S'<'
sI294
S'<'
sI295
S'<'
sI297
S'<'
sI298
S'<'
sI299
S'<'
sI300
S'<'
sI301
S'<'
sI302
S'+'
sI303
S'+'
sI304
S'<'
sI305
S'<'
sI306
S'<'
sI307
S'<'
sI308
S'<'
sI309
S'<'
sI310
S'<'
sI311
S'<'
sI313
S'<'
sI314
S'+'
sI315
S'+'
sI316
S'+'
sI317
S'+'
sI318
S'<'
sI319
S'<'
sI320
S'<'
sI321
S'<'
sI322
S'<'
sI323
S'+'
sI324
S'+'
sI325
S'<'
sI326
S'<'
sI327
S'<'
sI328
S'<'
sI329
S'<'
sI330
S'<'
sI331
S'<'
sI332
S'<'
sI334
S'<'
sI335
S'<'
sI336
S'<'
sI337
S'<'
sI338
S'<'
sI339
S'+'
sI340
S'+'
sI341
S'<'
sI342
S'<'
sI343
S'<'
sI344
S'<'
sI345
S'<'
sI346
S'<'
sI347
S'<'
sI348
S'<'
sI350
S'<'
sI351
S'<'
sI352
S'<'
sI353
S'<'
sI354
S'<'
sI355
S'+'
sI356
S'+'
sI357
S'<'
sI358
S'<'
sI359
S'<'
sI360
S'<'
sI361
S'<'
sI362
S'<'
sI363
S'<'
sI364
S'<'
sI366
S'<'
sI367
S'<'
sI368
S'<'
sI369
S'<'
sI370
S'<'
sI371
S'+'
sI372
S'+'
sI373
S'<'
sI374
S'<'
sI375
S'<'
sI376
S'<'
sI377
S'<'
sI378
S'<'
sI379
S'<'
sI380
S'<'
sI382
S'<'
sI383
S'<'
sI384
S'<'
sI385
S'<'
sI386
S'<'
sI387
S'+'
sI388
S'+'
sI389
S'<'
sI390
S'<'
sI391
S'<'
sI392
S'<'
sI393
S'<'
sI394
S'<'
sI395
S'<'
sI396
S'<'
sI398
S'<'
sI399
S'<'
sI400
S'<'
sI401
S'<'
sI402
S'<'
sI403
S'+'
sI404
S'+'
sI405
S'<'
sI406
S'<'
sI407
S'<'
sI408
S'<'
sI409
S'<'
sI410
S'<'
sI411
S'<'
sI412
S'<'
sI414
S'<'
sI415
S'<'
sI416
S'<'
sI417
S'<'
sI418
S'<'
sI419
S'+'
sI420
S'+'
sI421
S'<'
sI422
S'<'
sI423
S'<'
sI424
S'<'
sI425
S'<'
sI426
S'<'
sI427
S'<'
sI428
S'<'
sI430
S'<'
sI431
S'+'
sI432
S'+'
sI433
S'+'
sI434
S'+'
sI435
S'<'
sI436
S'<'
sI437
S'<'
sI438
S'<'
sI439
S'<'
sI440
S'+'
sI441
S'+'
sI442
S'<'
sI443
S'<'
sI444
S'<'
sI445
S'<'
sI446
S'<'
sI447
S'<'
sI448
S'<'
sI449
S'<'
sI451
S'<'
sI452
S'<'
sI453
S'<'
sI454
S'<'
sI455
S'<'
sI456
S'+'
sI457
S'+'
sI458
S'<'
sI459
S'<'
sI460
S'<'
sI461
S'<'
sI462
S'<'
sI463
S'<'
sI464
S'<'
sI465
S'<'
sI467
S'<'
sI468
S'<'
sI469
S'<'
sI470
S'<'
sI471
S'<'
sI472
S'+'
sI473
S'+'
sI474
S'<'
sI475
S'<'
sI476
S'<'
sI477
S'<'
sI478
S'<'
sI479
S'<'
sI480
S'<'
sI481
S'<'
sI483
S'<'
sI484
S'<'
sI485
S'<'
sI486
S'<'
sI487
S'<'
sI488
S'+'
sI489
S'+'
sI490
S'<'
sI491
S'<'
sI492
S'<'
sI493
S'<'
sI494
S'<'
sI495
S'<'
sI496
S'<'
sI497
S'<'
sI499
S'<'
sI500
S'<'
sI501
S'<'
sI502
S'<'
sI503
S'<'
sI504
S'+'
sI505
S'+'
sI506
S'<'
sI507
S'<'
sI508
S'<'
sI509
S'<'
sI510
S'<'
sI511
S'<'
sI512
S'<'
sI513
S'<'
sI515
S'<'
sI516
S'<'
sI517
S'<'
sI518
S'<'
sI519
S'<'
sI520
S'+'
sI521
S'+'
sI522
S'<'
sI523
S'<'
sI524
S'<'
sI525
S'<'
sI526
S'<'
sI527
S'<'
sI528
S'<'
sI529
S'<'
sI531
S'<'
sI532
S'<'
sI533
S'<'
sI534
S'<'
sI535
S'<'
sI536
S'+'
sI537
S'+'
sI538
S'<'
sI539
S'<'
sI540
S'<'
sI541
S'<'
sI542
S'<'
sI543
S'<'
sI544
S'<'
sI545
S'<'
sI546
S'<'
sI547
S'+'
sI548
S'+'
sI549
S'+'
sI550
S'+'
sI551
S'<'
sI552
S'<'
sI553
S'<'
sI554
S'<'
sI555
S'<'
sI556
S'+'
sI557
S'+'
sI558
S'<'
sI559
S'<'
sI560
S'<'
sI561
S'<'
sI562
S'<'
sI563
S'<'
sI564
S'<'
sI565
S'<'
sI567
S'<'
sI568
S'<'
sI569
S'<'
sI570
S'<'
sI571
S'<'
sI572
S'+'
sI573
S'+'
sI574
S'<'
sI575
S'<'
sI576
S'<'
sI577
S'<'
sI578
S'<'
sI579
S'<'
sI580
S'<'
sI581
S'<'
sI583
S'<'
sI584
S'<'
sI585
S'<'
sI586
S'<'
sI587
S'<'
sI588
S'+'
sI589
S'+'
sI590
S'<'
sI591
S'<'
sI592
S'<'
sI593
S'<'
sI594
S'<'
sI595
S'<'
sI596
S'<'
sI597
S'<'
sI599
S'<'
sI600
S'<'
sI601
S'<'
sI602
S'<'
sI603
S'<'
sI604
S'+'
sI605
S'+'
sI606
S'<'
sI607
S'<'
sI608
S'<'
sI609
S'<'
sI610
S'<'
sI611
S'<'
sI612
S'<'
sI613
S'<'
sI615
S'<'
sI616
S'<'
sI617
S'<'
sI618
S'<'
sI619
S'<'
sI620
S'+'
sI621
S'+'
sI622
S'<'
sI623
S'<'
sI624
S'<'
sI625
S'<'
sI626
S'<'
sI627
S'<'
sI628
S'<'
sI629
S'<'
sI631
S'<'
sI632
S'<'
sI633
S'<'
sI634
S'<'
sI635
S'<'
sI636
S'+'
sI637
S'+'
sI638
S'<'
sI639
S'<'
sI640
S'<'
sI641
S'<'
sI642
S'<'
sI643
S'<'
sI644
S'<'
sI645
S'<'
sI647
S'<'
sI648
S'<'
sI649
S'<'
sI650
S'<'
sI651
S'<'
sI652
S'+'
sI653
S'+'
sI654
S'<'
sI655
S'<'
sI656
S'<'
sI657
S'<'
sI658
S'<'
sI659
S'<'
sI660
S'<'
sI661
S'<'
sI662
S'<'
sI663
S'+'
sI664
S'+'
sI665
S'+'
sI666
S'+'
sI667
S'<'
sI668
S'<'
sI669
S'<'
sI670
S'<'
sI671
S'<'
sI672
S'+'
sI673
S'+'
sI674
S'<'
sI675
S'<'
sI676
S'<'
sI677
S'<'
sI678
S'<'
sI679
S'<'
sI680
S'<'
sI681
S'<'
sI683
S'<'
sI684
S'<'
sI685
S'<'
sI686
S'<'
sI687
S'<'
sI688
S'+'
sI689
S'+'
sI690
S'<'
sI691
S'<'
sI692
S'<'
sI693
S'<'
sI694
S'<'
sI695
S'<'
sI696
S'<'
sI697
S'<'
sI699
S'<'
sI700
S'<'
sI701
S'<'
sI702
S'<'
sI703
S'<'
sI704
S'+'
sI705
S'+'
sI706
S'<'
sI707
S'<'
sI708
S'<'
sI709
S'<'
sI710
S'<'
sI711
S'<'
sI712
S'<'
sI713
S'<'
sI715
S'<'
sI716
S'<'
sI717
S'<'
sI718
S'<'
sI719
S'<'
sI720
S'+'
sI721
S'+'
sI722
S'<'
sI723
S'<'
sI724
S'<'
sI725
S'<'
sI726
S'<'
sI727
S'<'
sI728
S'<'
sI729
S'<'
sI731
S'<'
sI732
S'<'
sI733
S'<'
sI734
S'<'
sI735
S'<'
sI736
S'+'
sI737
S'+'
sI738
S'<'
sI739
S'<'
sI740
S'<'
sI741
S'<'
sI742
S'<'
sI743
S'<'
sI744
S'<'
sI745
S'<'
sI747
S'<'
sI748
S'+'
sI749
S'+'
sI750
S'+'
sI751
S'+'
sI752
S'<'
sI753
S'<'
sI754
S'<'
sI755
S'<'
sI756
S'<'
sI757
S'+'
sI758
S'+'
sI759
S'<'
sI760
S'<'
sI761
S'<'
sI762
S'<'
sI763
S'<'
sI764
S'<'
sI765
S'<'
sI766
S'<'
sI767
S'<'
sI768
S'<'
sI769
S'<'
sI770
S'<'
sI771
S'<'
sI772
S'+'
sI773
S'+'
sI774
S'<'
sI775
S'<'
sI776
S'<'
sI777
S'<'
sI778
S'<'
sI779
S'<'
sI780
S'<'
sI781
S'<'
sI782
S'<'
sI783
S'<'
sI784
S'<'
sI785
S'<'
sI786
S'<'
sI787
S'+'
sI788
S'+'
sI789
S'<'
sI790
S'<'
sI791
S'<'
sI792
S'<'
sI793
S'<'
sI794
S'<'
sI795
S'<'
sI796
S'<'
sI797
S'<'
sI798
S'<'
sI799
S'<'
sI800
S'<'
sI801
S'<'
sI802
S'+'
sI803
S'+'
sI804
S'<'
sI805
S'<'
sI806
S'<'
sI807
S'<'
sI808
S'<'
sI809
S'<'
sI810
S'<'
sI811
S'<'
sI812
S'<'
sI813
S'<'
sI814
S'<'
ssS'lifetime'
p1160
(dp1161
I257
F0.42662564538187336
sI790
F0
sI390
F0.27692096280766643
sI775
F0
sI44
F1
sI523
F0.079095974287634874
sI140
F0.2372357722689955
sI14
F1
sI655
F0
sI273
F0.26174543697698172
sI406
F0.14904858663506329
sI539
F0
sI156
F0.12690319902993885
sI29
F1
sI289
F0.13386587777460993
sI675
F0.73525560043882932
sI805
F0
sI422
F0.017239633686324925
sI172
F0.0052302035081396234
sI559
F0.93935128424667025
sI305
F0.0028092228730268007
sI691
F0.52849343317343922
sI443
F0.93935128424667025
sI60
F1
sI575
F0.72644537841348067
sI193
F1
sI707
F0.3504230122882977
sI326
F1
sI459
F0.72644537841348067
sI76
F0.97770118134347905
sI591
F0.53725238187213287
sI209
F1
sI723
F0.1894998223624485
sI342
F0.8398935612271573
sI475
F0.53725238187213287
sI92
F0.71016340625589458
sI607
F0.36801965072430382
sI225
F0.81440471164235639
sI739
F0.061625453202832546
sI358
F0.62592269961046809
sI491
F0.36801965072430382
sI108
F0.50398197544751533
sI623
F0.20700066167583775
sI241
F0.60711865231883233
sI374
F0.44142624819544846
sI760
F0
sI507
F0.20700066167583775
sI124
F0.35003270248237117
sI639
F0.079095974287634874
ssS'HS_final'
p1162
(dp1163
I2
g906
(g908
S'\x00\x00\x00\x00\x00\x00,@'
tRp1164
sI547
g906
(g908
S'j2\xe6g[\x0c\x14@'
tRp1165
sI748
g906
(g908
S'\xc3\xe6Z\xa7KS\x11@'
tRp1166
sI431
g906
(g908
S'j2\xe6g[\x0c\x14@'
tRp1167
sI181
g906
(g908
S'\x00\x00\x00\x00\x00\x00&@'
tRp1168
sI663
g906
(g908
S'8\xcb\xadj\x92\x06\x0f@'
tRp1169
sI314
g906
(g908
S'\x00\x00\x00\x00\x00\x00$@'
tRp1170
ssS'species'
p1171
(dp1172
I1
I0
sI790
I0
sI390
I0
sI257
I0
sI44
I0
sI523
I0
sI140
I0
sI14
I0
sI655
I0
sI273
I0
sI406
I0
sI539
I0
sI156
I0
sI29
I0
sI289
I0
sI675
I0
sI805
I0
sI422
I0
sI775
I0
sI172
I0
sI559
I0
sI305
I0
sI691
I0
sI443
I0
sI60
I0
sI575
I0
sI193
I0
sI707
I0
sI326
I0
sI459
I0
sI76
I0
sI591
I0
sI209
I0
sI723
I0
sI342
I0
sI475
I0
sI92
I0
sI607
I0
sI225
I0
sI739
I0
sI358
I0
sI491
I0
sI108
I0
sI623
I0
sI241
I0
sI374
I0
sI760
I0
sI507
I0
sI124
I0
sI639
I0
ssS'is_ligulated'
p1173
(dp1174
I257
I1
sI790
I1
sI390
I1
sI775
I1
sI44
I1
sI523
I0
sI140
I1
sI14
I1
sI655
I0
sI273
I1
sI406
I0
sI539
I0
sI156
I0
sI29
I1
sI289
I0
sI675
I1
sI805
I1
sI422
I0
sI172
I0
sI559
I1
sI305
I0
sI691
I1
sI443
I1
sI60
I1
sI575
I1
sI193
I1
sI707
I1
sI326
I1
sI459
I1
sI76
I1
sI591
I1
sI209
I1
sI723
I0
sI342
I1
sI475
I1
sI92
I1
sI607
I1
sI225
I1
sI739
I0
sI358
I1
sI491
I1
sI108
I1
sI623
I1
sI241
I1
sI374
I1
sI760
I1
sI507
I1
sI124
I1
sI639
I0
ssS'area'
p1175
(dp1176
I8
g906
(g908
S'\x00\x00\x00\x00\x00\x00\x00\x00'
tRp1177
sI11
F0.00026860617188192732
sI14
g906
(g908
S'lr\xda\x80H\x9a)?'
tRp1178
sI17
g906
(g908
S'\x00\x00\x00\x00\x00\x00\x00\x00'
tRp1179
sI18
g906
(g908
S'\x00\x00\x00\x00\x00\x00\x00\x00'
tRp1180
sI19
F0.00026860617188192732
sI20
F0
sI21
I0
sI23
g906
(g908
S'\x00\x00\x00\x00\x00\x00\x00\x00'
tRp1181
sI26
F4.7123889803846904e-06
sI29
g906
(g908
S'\xb0\xad\xb8\xd4\xf1\x98/?'
tRp1182
sI32
g906
(g908
S'\x00\x00\x00\x00\x00\x00\x00\x00'
tRp1183
sI33
g906
(g908
S'\x00\x00\x00\x00\x00\x00\x00\x00'
tRp1184
sI34
F4.7123889803846904e-06
sI35
F0.00026860617188192732
sI36
I0
sI38
g906
(g908
S'\x00\x00\x00\x00\x00\x00\x00\x00'
tRp1185
sI41
g906
(g908
S'\x00\x00\x00\x00\x00\x00\x00\x00'
tRp1186
sI44
g906
(g908
S'\xcb\x9e\xac\xbaK\xc32?'
tRp1187
sI47
g906
(g908
S'\x00\x00\x00\x00\x00\x00\x00\x00'
tRp1188
sI48
g906
(g908
S'\x00\x00\x00\x00\x00\x00\x00\x00'
tRp1189
sI49
g906
(g908
S'\x00\x00\x00\x00\x00\x00\x00\x00'
tRp1190
sI50
g906
(g908
S'\xce\x9d\xdb\x1c\xd8\x7f:?'
tRp1191
sI51
g906
(g908
S'\xcb\x9e\xac\xbaK\xc32?'
tRp1192
sI52
g906
(g908
S'\xfe\x97<\xf3#\x84\xaf>'
tRp1193
sI54
g906
(g908
S'\x00\x00\x00\x00\x00\x00\x00\x00'
tRp1194
sI57
g906
(g908
S'\x00\x00\x00\x00\x00\x00\x00\x00'
tRp1195
sI60
I0
sI63
g906
(g908
S'\x00\x00\x00\x00\x00\x00\x00\x00'
tRp1196
sI64
g906
(g908
S'\x00\x00\x00\x00\x00\x00\x00\x00'
tRp1197
sI65
g906
(g908
S'\x00\x00\x00\x00\x00\x00\x00\x00'
tRp1198
sI66
g906
(g908
S'?f\xbb\xcd\x875;?'
tRp1199
sI68
g906
(g908
S'0~\x08Z\xb7,4?'
tRp1200
sI70
g906
(g908
S'\x00\x00\x00\x00\x00\x00\x00\x00'
tRp1201
sI73
g906
(g908
S'\x00\x00\x00\x00\x00\x00\x00\x00'
tRp1202
sI76
I0
sI79
g906
(g908
S'\x00\x00\x00\x00\x00\x00\x00\x00'
tRp1203
sI80
g906
(g908
S'\x00\x00\x00\x00\x00\x00\x00\x00'
tRp1204
sI81
g906
(g908
S'\x00\x00\x00\x00\x00\x00\x00\x00'
tRp1205
sI82
g906
(g908
S'\x90\xbdW\xbdv\x8a=?'
tRp1206
sI84
g906
(g908
S'\x0c\xe5\xcc\x98!\x937?'
tRp1207
sI86
g906
(g908
S'\x00\x00\x00\x00\x00\x00\x00\x00'
tRp1208
sI89
g906
(g908
S'\x00\x00\x00\x00\x00\x00\x00\x00'
tRp1209
sI92
I0
sI95
g906
(g908
S'\x00\x00\x00\x00\x00\x00\x00\x00'
tRp1210
sI96
g906
(g908
S'\x00\x00\x00\x00\x00\x00\x00\x00'
tRp1211
sI97
g906
(g908
S'\x00\x00\x00\x00\x00\x00\x00\x00'
tRp1212
sI98
g906
(g908
S'\xe3\x08\xce\x91\x94\xa1@?'
tRp1213
sI100
g906
(g908
S'\xa6\x8cW\xa0e\xb7=?'
tRp1214
sI102
g906
(g908
S'\x00\x00\x00\x00\x00\x00\x00\x00'
tRp1215
sI105
g906
(g908
S'\x00\x00\x00\x00\x00\x00\x00\x00'
tRp1216
sI108
I0
sI111
g906
(g908
S'\x00\x00\x00\x00\x00\x00\x00\x00'
tRp1217
sI112
g906
(g908
S'\xc7=\x0c\xeda;\xe9>'
tRp1218
sI113
g906
(g908
S'\x00\x00\x00\x00\x00\x00\x00\x00'
tRp1219
sI114
g906
(g908
S'\xa2\x8c/5\x8b\x1cD?'
tRp1220
sI116
g906
(g908
S'\xb4\xbf \x86\x808D?'
tRp1221
sI118
g906
(g908
S'\x00\x00\x00\x00\x00\x00\x00\x00'
tRp1222
sI121
g906
(g908
S'\x00\x00\x00\x00\x00\x00\x00\x00'
tRp1223
sI124
I0
sI127
g906
(g908
S'\x00\x00\x00\x00\x00\x00\x00\x00'
tRp1224
sI128
g906
(g908
S'\x04\xde\xed\x9e\x8e}\x0c?'
tRp1225
sI129
g906
(g908
S'\x00\x00\x00\x00\x00\x00\x00\x00'
tRp1226
sI130
g906
(g908
S'(\xf3&v\xdb=K?'
tRp1227
sI132
g906
(g908
S'\x9d\xcd\x19\x06IbN?'
tRp1228
sI134
g906
(g908
S'\x00\x00\x00\x00\x00\x00\x00\x00'
tRp1229
sI137
g906
(g908
S'\x00\x00\x00\x00\x00\x00\x00\x00'
tRp1230
sI140
I0
sI143
g906
(g908
S'\x00\x00\x00\x00\x00\x00\x00\x00'
tRp1231
sI144
g906
(g908
S'\x10,\xeb\xe9\xc9*\x06?'
tRp1232
sI145
g906
(g908
S'\x00\x00\x00\x00\x00\x00\x00\x00'
tRp1233
sI146
g906
(g908
S'\x18\xf1\xc2.\x88\xc6Q?'
tRp1234
sI148
g906
(g908
S'\x14x\xf0\x9bi\xe9V?'
tRp1235
sI150
g906
(g908
S'\x00\x00\x00\x00\x00\x00\x00\x00'
tRp1236
sI153
g906
(g908
S'\x00\x00\x00\x00\x00\x00\x00\x00'
tRp1237
sI156
I0
sI159
g906
(g908
S'\x00\x00\x00\x00\x00\x00\x00\x00'
tRp1238
sI160
g906
(g908
S'\x00\x00\x00\x00\x00\x00\x00\x00'
tRp1239
sI161
g906
(g908
S'\x00\x00\x00\x00\x00\x00\x00\x00'
tRp1240
sI162
g906
(g908
S'\xce\x8f\xeb&\xae\x80 ?'
tRp1241
sI164
g906
(g908
S'\xfa\x82\xd1\x91\x92\xca]?'
tRp1242
sI166
g906
(g908
S'\x00\x00\x00\x00\x00\x00\x00\x00'
tRp1243
sI169
g906
(g908
S'\x00\x00\x00\x00\x00\x00\x00\x00'
tRp1244
sI172
I0
sI175
g906
(g908
S'\x00\x00\x00\x00\x00\x00\x00\x00'
tRp1245
sI176
g906
(g908
S'\x00\x00\x00\x00\x00\x00\x00\x00'
tRp1246
sI177
g906
(g908
S'\x00\x00\x00\x00\x00\x00\x00\x00'
tRp1247
sI178
g906
(g908
S'\x00\x00\x00\x00\x00\x00\x00\x00'
tRp1248
sI180
g906
(g908
S'\x87\x85\xa1\xdf\xbbQ9?'
tRp1249
sI187
g906
(g908
S'\x00\x00\x00\x00\x00\x00\x00\x00'
tRp1250
sI190
g906
(g908
S'\x00\x00\x00\x00\x00\x00\x00\x00'
tRp1251
sI193
I0
sI196
g906
(g908
S'\x00\x00\x00\x00\x00\x00\x00\x00'
tRp1252
sI197
g906
(g908
S'\x00\x00\x00\x00\x00\x00\x00\x00'
tRp1253
sI198
g906
(g908
S'\x00\x00\x00\x00\x00\x00\x00\x00'
tRp1254
sI199
g906
(g908
S'\xd8L\x83)\xb6\xf28?'
tRp1255
sI201
g906
(g908
S'\xe2\xff\xcc\xd9;>)?'
tRp1256
sI203
g906
(g908
S'\x00\x00\x00\x00\x00\x00\x00\x00'
tRp1257
sI206
g906
(g908
S'\x00\x00\x00\x00\x00\x00\x00\x00'
tRp1258
sI209
I0
sI212
g906
(g908
S'\x00\x00\x00\x00\x00\x00\x00\x00'
tRp1259
sI213
g906
(g908
S'\x00\x00\x00\x00\x00\x00\x00\x00'
tRp1260
sI214
g906
(g908
S'\x00\x00\x00\x00\x00\x00\x00\x00'
tRp1261
sI215
g906
(g908
S'\x82|\xf2\x9eM\xcb<?'
tRp1262
sI217
g906
(g908
S'\xc8B\x15dU\xa03?'
tRp1263
sI219
g906
(g908
S'\x00\x00\x00\x00\x00\x00\x00\x00'
tRp1264
sI222
g906
(g908
S'\x00\x00\x00\x00\x00\x00\x00\x00'
tRp1265
sI225
I0
sI228
g906
(g908
S'\x00\x00\x00\x00\x00\x00\x00\x00'
tRp1266
sI229
g906
(g908
S'\x00\x00\x00\x00\x00\x00\x00\x00'
tRp1267
sI230
g906
(g908
S'\x00\x00\x00\x00\x00\x00\x00\x00'
tRp1268
sI231
g906
(g908
S'\xcf!\xd4K9bA?'
tRp1269
sI233
g906
(g908
S'"\x18\x05MA(<?'
tRp1270
sI235
g906
(g908
S'\x00\x00\x00\x00\x00\x00\x00\x00'
tRp1271
sI238
g906
(g908
S'\x00\x00\x00\x00\x00\x00\x00\x00'
tRp1272
sI241
I0
sI244
g906
(g908
S'\x00\x00\x00\x00\x00\x00\x00\x00'
tRp1273
sI245
g906
(g908
S'\x00\x00\x00\x00\x00\x00\x00\x00'
tRp1274
sI246
g906
(g908
S'\x00\x00\x00\x00\x00\x00\x00\x00'
tRp1275
sI247
g906
(g908
S'\xc8\xcb\xc3B16E?'
tRp1276
sI249
g906
(g908
S'\x01\x00\xdb\xd3p\x1bC?'
tRp1277
sI251
g906
(g908
S'\x00\x00\x00\x00\x00\x00\x00\x00'
tRp1278
sI254
g906
(g908
S'\x00\x00\x00\x00\x00\x00\x00\x00'
tRp1279
sI257
I0
sI260
g906
(g908
S'\x00\x00\x00\x00\x00\x00\x00\x00'
tRp1280
sI261
g906
(g908
S'\xa2\xb7\x15\xae9M\xf2>'
tRp1281
sI262
g906
(g908
S'\x00\x00\x00\x00\x00\x00\x00\x00'
tRp1282
sI263
g906
(g908
S'\xc4\xfc\xa0A\xc9\xb3I?'
tRp1283
sI265
g906
(g908
S'] W\xf0\xf1\xe9H?'
tRp1284
sI267
g906
(g908
S'\x00\x00\x00\x00\x00\x00\x00\x00'
tRp1285
sI270
g906
(g908
S'\x00\x00\x00\x00\x00\x00\x00\x00'
tRp1286
sI273
I0
sI276
g906
(g908
S'\x00\x00\x00\x00\x00\x00\x00\x00'
tRp1287
sI277
g906
(g908
S"$s'\xda\x04\x00\xf5>"
tRp1288
sI278
g906
(g908
S'\x00\x00\x00\x00\x00\x00\x00\x00'
tRp1289
sI279
g906
(g908
S'-\xbb+\xaaW\xb8N?'
tRp1290
sI281
g906
(g908
S'\xe1\xf9\xe1\xf03\xbeQ?'
tRp1291
sI283
g906
(g908
S'\x00\x00\x00\x00\x00\x00\x00\x00'
tRp1292
sI286
g906
(g908
S'\x00\x00\x00\x00\x00\x00\x00\x00'
tRp1293
sI289
I0
sI292
g906
(g908
S'\x00\x00\x00\x00\x00\x00\x00\x00'
tRp1294
sI293
g906
(g908
S'\x00\x00\x00\x00\x00\x00\x00\x00'
tRp1295
sI294
g906
(g908
S'\x00\x00\x00\x00\x00\x00\x00\x00'
tRp1296
sI295
g906
(g908
S'\xc5\xbc\xcf\x89\x88\x91\xe8>'
tRp1297
sI297
g906
(g908
S'Ma\x96n\x92oW?'
tRp1298
sI299
g906
(g908
S'\x00\x00\x00\x00\x00\x00\x00\x00'
tRp1299
sI302
g906
(g908
S'\x00\x00\x00\x00\x00\x00\x00\x00'
tRp1300
sI305
I0
sI308
g906
(g908
S'\x00\x00\x00\x00\x00\x00\x00\x00'
tRp1301
sI309
g906
(g908
S'\x00\x00\x00\x00\x00\x00\x00\x00'
tRp1302
sI310
g906
(g908
S'\x00\x00\x00\x00\x00\x00\x00\x00'
tRp1303
sI311
g906
(g908
S'\x00\x00\x00\x00\x00\x00\x00\x00'
tRp1304
sI313
g906
(g908
S'v5\xd0\xf7}\xe62?'
tRp1305
sI320
g906
(g908
S'\x00\x00\x00\x00\x00\x00\x00\x00'
tRp1306
sI323
g906
(g908
S'\x00\x00\x00\x00\x00\x00\x00\x00'
tRp1307
sI326
I0
sI329
g906
(g908
S'\x00\x00\x00\x00\x00\x00\x00\x00'
tRp1308
sI330
g906
(g908
S'\x00\x00\x00\x00\x00\x00\x00\x00'
tRp1309
sI331
g906
(g908
S'\x00\x00\x00\x00\x00\x00\x00\x00'
tRp1310
sI332
g906
(g908
S'\xbbi\xad\xa4\xe7A;?'
tRp1311
sI334
g906
(g908
S'\xe5\xff\xcc\xd9;>)?'
tRp1312
sI336
g906
(g908
S'\x00\x00\x00\x00\x00\x00\x00\x00'
tRp1313
sI339
g906
(g908
S'\x00\x00\x00\x00\x00\x00\x00\x00'
tRp1314
sI342
I0
sI345
g906
(g908
S'\x00\x00\x00\x00\x00\x00\x00\x00'
tRp1315
sI346
g906
(g908
S'\x00\x00\x00\x00\x00\x00\x00\x00'
tRp1316
sI347
g906
(g908
S'\x00\x00\x00\x00\x00\x00\x00\x00'
tRp1317
sI348
g906
(g908
S'b\x89\xf6^\x02J@?'
tRp1318
sI350
g906
(g908
S'\x05K\x13\xd7\x88\xd34?'
tRp1319
sI352
g906
(g908
S'\x00\x00\x00\x00\x00\x00\x00\x00'
tRp1320
sI355
g906
(g908
S'\x00\x00\x00\x00\x00\x00\x00\x00'
tRp1321
sI358
I0
sI361
g906
(g908
S'\x00\x00\x00\x00\x00\x00\x00\x00'
tRp1322
sI362
g906
(g908
S'\x00\x00\x00\x00\x00\x00\x00\x00'
tRp1323
sI363
g906
(g908
S'\x00\x00\x00\x00\x00\x00\x00\x00'
tRp1324
sI364
g906
(g908
S'\xa1\xb2\x02\xfd\x1b\xdcC?'
tRp1325
sI366
g906
(g908
S"O'\xb9\xba\\\x11??"
tRp1326
sI368
g906
(g908
S'\x00\x00\x00\x00\x00\x00\x00\x00'
tRp1327
sI371
g906
(g908
S'\x00\x00\x00\x00\x00\x00\x00\x00'
tRp1328
sI374
I0
sI377
g906
(g908
S'\x00\x00\x00\x00\x00\x00\x00\x00'
tRp1329
sI378
g906
(g908
S'\x00\x00\x00\x00\x00\x00\x00\x00'
tRp1330
sI379
g906
(g908
S'\x00\x00\x00\x00\x00\x00\x00\x00'
tRp1331
sI380
g906
(g908
S'L#\xdb[\xcb%H?'
tRp1332
sI382
g906
(g908
S'h\n\xec\xcbL\xacE?'
tRp1333
sI384
g906
(g908
S'\x00\x00\x00\x00\x00\x00\x00\x00'
tRp1334
sI387
g906
(g908
S'\x00\x00\x00\x00\x00\x00\x00\x00'
tRp1335
sI390
I0
sI393
g906
(g908
S'\x00\x00\x00\x00\x00\x00\x00\x00'
tRp1336
sI394
g906
(g908
S'W\xd3\xb0\xfcJ/\xf0>'
tRp1337
sI395
g906
(g908
S'\x00\x00\x00\x00\x00\x00\x00\x00'
tRp1338
sI396
g906
(g908
S'\xed\x13G\xff\xb6\x00M?'
tRp1339
sI398
g906
(g908
S'9xb\xef:\xa1N?'
tRp1340
sI400
g906
(g908
S'\x00\x00\x00\x00\x00\x00\x00\x00'
tRp1341
sI403
g906
(g908
S'\x00\x00\x00\x00\x00\x00\x00\x00'
tRp1342
sI406
I0
sI409
g906
(g908
S'\x00\x00\x00\x00\x00\x00\x00\x00'
tRp1343
sI410
g906
(g908
S'\x00\x00\x00\x00\x00\x00\x00\x00'
tRp1344
sI411
g906
(g908
S'\x00\x00\x00\x00\x00\x00\x00\x00'
tRp1345
sI412
g906
(g908
S'\n\xbe\x8b&\xaa\xa6)?'
tRp1346
sI414
g906
(g908
S'\xf9\x0b\xc3\xcf\x03 U?'
tRp1347
sI416
g906
(g908
S'\x00\x00\x00\x00\x00\x00\x00\x00'
tRp1348
sI419
g906
(g908
S'\x00\x00\x00\x00\x00\x00\x00\x00'
tRp1349
sI422
I0
sI425
g906
(g908
S'\x00\x00\x00\x00\x00\x00\x00\x00'
tRp1350
sI426
g906
(g908
S'\x00\x00\x00\x00\x00\x00\x00\x00'
tRp1351
sI427
g906
(g908
S'\x00\x00\x00\x00\x00\x00\x00\x00'
tRp1352
sI428
g906
(g908
S'\x00\x00\x00\x00\x00\x00\x00\x00'
tRp1353
sI430
g906
(g908
S'\xfd%9M/\x879?'
tRp1354
sI437
g906
(g908
S'\x00\x00\x00\x00\x00\x00\x00\x00'
tRp1355
sI440
g906
(g908
S'\x00\x00\x00\x00\x00\x00\x00\x00'
tRp1356
sI443
I0
sI446
g906
(g908
S'\x00\x00\x00\x00\x00\x00\x00\x00'
tRp1357
sI447
g906
(g908
S'\x00\x00\x00\x00\x00\x00\x00\x00'
tRp1358
sI448
g906
(g908
S'\x00\x00\x00\x00\x00\x00\x00\x00'
tRp1359
sI449
g906
(g908
S'\x974e;\xc0\x96>?'
tRp1360
sI451
g906
(g908
S'\xde\xff\xcc\xd9;>)?'
tRp1361
sI453
g906
(g908
S'\x00\x00\x00\x00\x00\x00\x00\x00'
tRp1362
sI456
g906
(g908
S'\x00\x00\x00\x00\x00\x00\x00\x00'
tRp1363
sI459
I0
sI462
g906
(g908
S'\x00\x00\x00\x00\x00\x00\x00\x00'
tRp1364
sI463
g906
(g908
S'\x00\x00\x00\x00\x00\x00\x00\x00'
tRp1365
sI464
g906
(g908
S'\x00\x00\x00\x00\x00\x00\x00\x00'
tRp1366
sI465
g906
(g908
S'\xc4\xf0]\xa5(\x96B?'
tRp1367
sI467
g906
(g908
S'\x85\xa7+\x03\xac\x906?'
tRp1368
sI469
g906
(g908
S'\x00\x00\x00\x00\x00\x00\x00\x00'
tRp1369
sI472
g906
(g908
S'\x00\x00\x00\x00\x00\x00\x00\x00'
tRp1370
sI475
I0
sI478
g906
(g908
S'\x00\x00\x00\x00\x00\x00\x00\x00'
tRp1371
sI479
g906
(g908
S'\x00\x00\x00\x00\x00\x00\x00\x00'
tRp1372
sI480
g906
(g908
S'\x00\x00\x00\x00\x00\x00\x00\x00'
tRp1373
sI481
g906
(g908
S"\x0c'\xb1\xeb\xb5\xa7F?"
tRp1374
sI483
g906
(g908
S'o\xbf\xba\x1c:\xb0A?'
tRp1375
sI485
g906
(g908
S'\x00\x00\x00\x00\x00\x00\x00\x00'
tRp1376
sI488
g906
(g908
S'\x00\x00\x00\x00\x00\x00\x00\x00'
tRp1377
sI491
I0
sI494
g906
(g908
S'\x00\x00\x00\x00\x00\x00\x00\x00'
tRp1378
sI495
g906
(g908
S'C\x94\x0f\x85Z\xaa\xf4>'
tRp1379
sI496
g906
(g908
S'\x00\x00\x00\x00\x00\x00\x00\x00'
tRp1380
sI497
g906
(g908
S'\xd9\xa7z\x96\xfeUK?'
tRp1381
sI499
g906
(g908
S'\xdc\xe7\x82\xff\x00\xdcI?'
tRp1382
sI501
g906
(g908
S'\x00\x00\x00\x00\x00\x00\x00\x00'
tRp1383
sI504
g906
(g908
S'\x00\x00\x00\x00\x00\x00\x00\x00'
tRp1384
sI507
I0
sI510
g906
(g908
S'\x00\x00\x00\x00\x00\x00\x00\x00'
tRp1385
sI511
g906
(g908
S'\x82\xc9;RKQ\xad>'
tRp1386
sI512
g906
(g908
S'\x00\x00\x00\x00\x00\x00\x00\x00'
tRp1387
sI513
g906
(g908
S'\xd9\x11\xf8\x8f\nAP?'
tRp1388
sI515
g906
(g908
S'05:\x82\xba)S?'
tRp1389
sI517
g906
(g908
S'\x00\x00\x00\x00\x00\x00\x00\x00'
tRp1390
sI520
g906
(g908
S'\x00\x00\x00\x00\x00\x00\x00\x00'
tRp1391
sI523
I0
sI526
g906
(g908
S'\x00\x00\x00\x00\x00\x00\x00\x00'
tRp1392
sI527
g906
(g908
S'\x00\x00\x00\x00\x00\x00\x00\x00'
tRp1393
sI528
g906
(g908
S'\x00\x00\x00\x00\x00\x00\x00\x00'
tRp1394
sI529
g906
(g908
S'\x00\x00\x00\x00\x00\x00\x00\x00'
tRp1395
sI531
g906
(g908
S'\xb3\xf7\x1cT\xc7\x99P?'
tRp1396
sI533
g906
(g908
S'\x00\x00\x00\x00\x00\x00\x00\x00'
tRp1397
sI536
g906
(g908
S'\x00\x00\x00\x00\x00\x00\x00\x00'
tRp1398
sI539
I0
sI542
g906
(g908
S'\x00\x00\x00\x00\x00\x00\x00\x00'
tRp1399
sI543
g906
(g908
S'\x00\x00\x00\x00\x00\x00\x00\x00'
tRp1400
sI544
g906
(g908
S'\x00\x00\x00\x00\x00\x00\x00\x00'
tRp1401
sI545
g906
(g908
S'\x00\x00\x00\x00\x00\x00\x00\x00'
tRp1402
sI546
g906
(g908
S'\xb6Q~\xd5 \x95\xb4>'
tRp1403
sI553
g906
(g908
S'\x00\x00\x00\x00\x00\x00\x00\x00'
tRp1404
sI556
g906
(g908
S'\x00\x00\x00\x00\x00\x00\x00\x00'
tRp1405
sI559
I0
sI562
g906
(g908
S'\x00\x00\x00\x00\x00\x00\x00\x00'
tRp1406
sI563
g906
(g908
S'\x00\x00\x00\x00\x00\x00\x00\x00'
tRp1407
sI564
g906
(g908
S'\x00\x00\x00\x00\x00\x00\x00\x00'
tRp1408
sI565
g906
(g908
S'\x974e;\xc0\x96>?'
tRp1409
sI567
g906
(g908
S'\xde\xff\xcc\xd9;>)?'
tRp1410
sI569
g906
(g908
S'\x00\x00\x00\x00\x00\x00\x00\x00'
tRp1411
sI572
g906
(g908
S'\x00\x00\x00\x00\x00\x00\x00\x00'
tRp1412
sI575
I0
sI578
g906
(g908
S'\x00\x00\x00\x00\x00\x00\x00\x00'
tRp1413
sI579
g906
(g908
S'\x00\x00\x00\x00\x00\x00\x00\x00'
tRp1414
sI580
g906
(g908
S'\x00\x00\x00\x00\x00\x00\x00\x00'
tRp1415
sI581
g906
(g908
S'\xc4\xf0]\xa5(\x96B?'
tRp1416
sI583
g906
(g908
S'\x85\xa7+\x03\xac\x906?'
tRp1417
sI585
g906
(g908
S'\x00\x00\x00\x00\x00\x00\x00\x00'
tRp1418
sI588
g906
(g908
S'\x00\x00\x00\x00\x00\x00\x00\x00'
tRp1419
sI591
I0
sI594
g906
(g908
S'\x00\x00\x00\x00\x00\x00\x00\x00'
tRp1420
sI595
g906
(g908
S'\x00\x00\x00\x00\x00\x00\x00\x00'
tRp1421
sI596
g906
(g908
S'\x00\x00\x00\x00\x00\x00\x00\x00'
tRp1422
sI597
g906
(g908
S"\x0c'\xb1\xeb\xb5\xa7F?"
tRp1423
sI599
g906
(g908
S'o\xbf\xba\x1c:\xb0A?'
tRp1424
sI601
g906
(g908
S'\x00\x00\x00\x00\x00\x00\x00\x00'
tRp1425
sI604
g906
(g908
S'\x00\x00\x00\x00\x00\x00\x00\x00'
tRp1426
sI607
I0
sI610
g906
(g908
S'\x00\x00\x00\x00\x00\x00\x00\x00'
tRp1427
sI611
g906
(g908
S'C\x94\x0f\x85Z\xaa\xf4>'
tRp1428
sI612
g906
(g908
S'\x00\x00\x00\x00\x00\x00\x00\x00'
tRp1429
sI613
g906
(g908
S'\xd9\xa7z\x96\xfeUK?'
tRp1430
sI615
g906
(g908
S'\xdc\xe7\x82\xff\x00\xdcI?'
tRp1431
sI617
g906
(g908
S'\x00\x00\x00\x00\x00\x00\x00\x00'
tRp1432
sI620
g906
(g908
S'\x00\x00\x00\x00\x00\x00\x00\x00'
tRp1433
sI623
I0
sI626
g906
(g908
S'\x00\x00\x00\x00\x00\x00\x00\x00'
tRp1434
sI627
g906
(g908
S'\x82\xc9;RKQ\xad>'
tRp1435
sI628
g906
(g908
S'\x00\x00\x00\x00\x00\x00\x00\x00'
tRp1436
sI629
g906
(g908
S'\xd9\x11\xf8\x8f\nAP?'
tRp1437
sI631
g906
(g908
S'05:\x82\xba)S?'
tRp1438
sI633
g906
(g908
S'\x00\x00\x00\x00\x00\x00\x00\x00'
tRp1439
sI636
g906
(g908
S'\x00\x00\x00\x00\x00\x00\x00\x00'
tRp1440
sI639
I0
sI642
g906
(g908
S'\x00\x00\x00\x00\x00\x00\x00\x00'
tRp1441
sI643
g906
(g908
S'\x00\x00\x00\x00\x00\x00\x00\x00'
tRp1442
sI644
g906
(g908
S'\x00\x00\x00\x00\x00\x00\x00\x00'
tRp1443
sI645
g906
(g908
S'\x00\x00\x00\x00\x00\x00\x00\x00'
tRp1444
sI647
g906
(g908
S'\xb3\xf7\x1cT\xc7\x99P?'
tRp1445
sI649
g906
(g908
S'\x00\x00\x00\x00\x00\x00\x00\x00'
tRp1446
sI652
g906
(g908
S'\x00\x00\x00\x00\x00\x00\x00\x00'
tRp1447
sI655
I0
sI658
g906
(g908
S'\x00\x00\x00\x00\x00\x00\x00\x00'
tRp1448
sI659
g906
(g908
S'\x00\x00\x00\x00\x00\x00\x00\x00'
tRp1449
sI660
g906
(g908
S'\x00\x00\x00\x00\x00\x00\x00\x00'
tRp1450
sI661
g906
(g908
S'\x00\x00\x00\x00\x00\x00\x00\x00'
tRp1451
sI662
g906
(g908
S'\xb6Q~\xd5 \x95\xb4>'
tRp1452
sI669
g906
(g908
S'\x00\x00\x00\x00\x00\x00\x00\x00'
tRp1453
sI672
g906
(g908
S'\x00\x00\x00\x00\x00\x00\x00\x00'
tRp1454
sI675
I0
sI678
g906
(g908
S'\x00\x00\x00\x00\x00\x00\x00\x00'
tRp1455
sI679
g906
(g908
S'\x00\x00\x00\x00\x00\x00\x00\x00'
tRp1456
sI680
g906
(g908
S'\x00\x00\x00\x00\x00\x00\x00\x00'
tRp1457
sI681
g906
(g908
S'\x18\xf5Yj\x03fA?'
tRp1458
sI683
g906
(g908
S'\xdd\xff\xcc\xd9;>)?'
tRp1459
sI685
g906
(g908
S'\x00\x00\x00\x00\x00\x00\x00\x00'
tRp1460
sI688
g906
(g908
S'\x00\x00\x00\x00\x00\x00\x00\x00'
tRp1461
sI691
I0
sI694
g906
(g908
S'\x00\x00\x00\x00\x00\x00\x00\x00'
tRp1462
sI695
g906
(g908
S'\x00\x00\x00\x00\x00\x00\x00\x00'
tRp1463
sI696
g906
(g908
S'\x00\x00\x00\x00\x00\x00\x00\x00'
tRp1464
sI697
g906
(g908
S'\xa4!F&\xcd:E?'
tRp1465
sI699
g906
(g908
S'\xdd)\x04\xc9\x94u8?'
tRp1466
sI701
g906
(g908
S'\x00\x00\x00\x00\x00\x00\x00\x00'
tRp1467
sI704
g906
(g908
S'\x00\x00\x00\x00\x00\x00\x00\x00'
tRp1468
sI707
I0
sI710
g906
(g908
S'\x00\x00\x00\x00\x00\x00\x00\x00'
tRp1469
sI711
g906
(g908
S'\xec7Q\xb7H\xc5\xe6>'
tRp1470
sI712
g906
(g908
S'\x00\x00\x00\x00\x00\x00\x00\x00'
tRp1471
sI713
g906
(g908
S'5;\x88\xab\n\xb9I?'
tRp1472
sI715
g906
(g908
S'fj\x13\x8d\xd6\x0cD?'
tRp1473
sI717
g906
(g908
S'\x00\x00\x00\x00\x00\x00\x00\x00'
tRp1474
sI720
g906
(g908
S'\x00\x00\x00\x00\x00\x00\x00\x00'
tRp1475
sI723
I0
sI726
g906
(g908
S'\x00\x00\x00\x00\x00\x00\x00\x00'
tRp1476
sI727
g906
(g908
S'\x00\x00\x00\x00\x00\x00\x00\x00'
tRp1477
sI728
g906
(g908
S'\x00\x00\x00\x00\x00\x00\x00\x00'
tRp1478
sI729
g906
(g908
S',\x14\xb2\xca\xe3\x84H?'
tRp1479
sI731
g906
(g908
S'\x9bDYk\xf1dN?'
tRp1480
sI733
g906
(g908
S'\x00\x00\x00\x00\x00\x00\x00\x00'
tRp1481
sI736
g906
(g908
S'\x00\x00\x00\x00\x00\x00\x00\x00'
tRp1482
sI739
I0
sI742
g906
(g908
S'\x00\x00\x00\x00\x00\x00\x00\x00'
tRp1483
sI743
g906
(g908
S'\x00\x00\x00\x00\x00\x00\x00\x00'
tRp1484
sI744
g906
(g908
S'\x00\x00\x00\x00\x00\x00\x00\x00'
tRp1485
sI745
g906
(g908
S'\x00\x00\x00\x00\x00\x00\x00\x00'
tRp1486
sI747
g906
(g908
S'\x89\xfc\xbe\x86\xce\x8bF?'
tRp1487
sI754
g906
(g908
S'\x00\x00\x00\x00\x00\x00\x00\x00'
tRp1488
sI757
g906
(g908
S'\x00\x00\x00\x00\x00\x00\x00\x00'
tRp1489
sI760
I0
sI763
g906
(g908
S'\x00\x00\x00\x00\x00\x00\x00\x00'
tRp1490
sI764
g906
(g908
S'\x00\x00\x00\x00\x00\x00\x00\x00'
tRp1491
sI765
g906
(g908
S'\x00\x00\x00\x00\x00\x00\x00\x00'
tRp1492
sI766
g906
(g908
S'\x00\x00\x00\x00\x00\x00\x00\x00'
tRp1493
sI767
I0
sI769
g906
(g908
S'\x00\x00\x00\x00\x00\x00\x00\x00'
tRp1494
sI772
g906
(g908
S'\x00\x00\x00\x00\x00\x00\x00\x00'
tRp1495
sI775
I0
sI778
g906
(g908
S'\x00\x00\x00\x00\x00\x00\x00\x00'
tRp1496
sI779
g906
(g908
S'\x00\x00\x00\x00\x00\x00\x00\x00'
tRp1497
sI780
g906
(g908
S'\x00\x00\x00\x00\x00\x00\x00\x00'
tRp1498
sI781
g906
(g908
S'\x00\x00\x00\x00\x00\x00\x00\x00'
tRp1499
sI782
I0
sI784
g906
(g908
S'\x00\x00\x00\x00\x00\x00\x00\x00'
tRp1500
sI787
g906
(g908
S'\x00\x00\x00\x00\x00\x00\x00\x00'
tRp1501
sI790
I0
sI793
g906
(g908
S'\x00\x00\x00\x00\x00\x00\x00\x00'
tRp1502
sI794
g906
(g908
S'\xcd\xbfr\xa6\x86B\xf1>'
tRp1503
sI795
g906
(g908
S'\x00\x00\x00\x00\x00\x00\x00\x00'
tRp1504
sI796
g906
(g908
S'\x00\x00\x00\x00\x00\x00\x00\x00'
tRp1505
sI797
I0
sI799
g906
(g908
S'\x00\x00\x00\x00\x00\x00\x00\x00'
tRp1506
sI802
g906
(g908
S'\x00\x00\x00\x00\x00\x00\x00\x00'
tRp1507
sI805
I0
sI808
g906
(g908
S'\x00\x00\x00\x00\x00\x00\x00\x00'
tRp1508
sI809
g906
(g908
S'\x0eZ\x91\xf9\x11\xa7\xf0>'
tRp1509
sI810
g906
(g908
S'\x00\x00\x00\x00\x00\x00\x00\x00'
tRp1510
sI811
g906
(g908
S'\x00\x00\x00\x00\x00\x00\x00\x00'
tRp1511
sI812
I0
sI813
g906
(g908
S'lr\xda\x80H\x9a)?'
tRp1512
sI814
g906
(g908
S'\xb0\xad\xb8\xd4\xf1\x98/?'
tRp1513
ssS'label'
p1514
(dp1515
I1
S'plant1'
p1516
sI2
S'MS'
p1517
sI3
S'metamer0'
p1518
sI4
S'collar'
p1519
sI5
S'baseElement'
p1520
sI6
S'topElement'
p1521
sI7
S'metamer1'
p1522
sI8
S'internode'
p1523
sI9
g1520
sI10
g1521
sI11
S'sheath'
p1524
sI12
g1520
sI13
g1521
sI14
S'blade'
p1525
sI15
g1520
sI16
g1521
sI17
S'StemElement'
p1526
sI18
S'HiddenElement'
p1527
sI19
g1526
sI20
g1527
sI21
g1527
sI22
S'metamer2'
p1528
sI23
g1523
sI24
g1520
sI25
g1521
sI26
g1524
sI27
g1520
sI28
g1521
sI29
g1525
sI30
g1520
sI31
g1521
sI32
g1526
sI33
g1527
sI34
g1526
sI35
g1527
sI36
g1527
sI37
S'metamer3'
p1529
sI38
g1523
sI39
g1520
sI40
g1521
sI41
g1524
sI42
g1520
sI43
g1521
sI44
g1525
sI45
g1520
sI46
g1521
sI47
g1526
sI48
g1527
sI49
g1526
sI50
g1527
sI51
S'LeafElement1'
p1530
sI52
g1527
sI53
S'metamer4'
p1531
sI54
g1523
sI55
g1520
sI56
g1521
sI57
g1524
sI58
g1520
sI59
g1521
sI60
g1525
sI61
g1520
sI62
g1521
sI63
g1526
sI64
g1527
sI65
g1526
sI66
g1527
sI68
g1527
sI69
S'metamer5'
p1532
sI70
g1523
sI71
g1520
sI72
g1521
sI73
g1524
sI74
g1520
sI75
g1521
sI76
g1525
sI77
g1520
sI78
g1521
sI79
g1526
sI80
g1527
sI81
g1526
sI82
g1527
sI84
g1527
sI85
S'metamer6'
p1533
sI86
g1523
sI87
g1520
sI88
g1521
sI89
g1524
sI90
g1520
sI91
g1521
sI92
g1525
sI93
g1520
sI94
g1521
sI95
g1526
sI96
g1527
sI97
g1526
sI98
g1527
sI100
g1527
sI101
S'metamer7'
p1534
sI102
g1523
sI103
g1520
sI104
g1521
sI105
g1524
sI106
g1520
sI107
g1521
sI108
g1525
sI109
g1520
sI110
g1521
sI111
g1526
sI112
g1527
sI113
g1526
sI114
g1527
sI116
g1527
sI117
S'metamer8'
p1535
sI118
g1523
sI119
g1520
sI120
g1521
sI121
g1524
sI122
g1520
sI123
g1521
sI124
g1525
sI125
g1520
sI126
g1521
sI127
g1526
sI128
g1527
sI129
g1526
sI130
g1527
sI132
g1527
sI133
S'metamer9'
p1536
sI134
g1523
sI135
g1520
sI136
g1521
sI137
g1524
sI138
g1520
sI139
g1521
sI140
g1525
sI141
g1520
sI142
g1521
sI143
g1526
sI144
g1527
sI145
g1526
sI146
g1527
sI148
g1527
sI149
S'metamer10'
p1537
sI150
g1523
sI151
g1520
sI152
g1521
sI153
g1524
sI154
g1520
sI155
g1521
sI156
g1525
sI157
g1520
sI158
g1521
sI159
g1526
sI160
g1527
sI161
g1526
sI162
g1527
sI164
g1527
sI165
S'metamer11'
p1538
sI166
g1523
sI167
g1520
sI168
g1521
sI169
g1524
sI170
g1520
sI171
g1521
sI172
g1525
sI173
g1520
sI174
g1521
sI175
g1526
sI176
g1527
sI177
g1526
sI178
g1527
sI180
g1527
sI181
g906
(g907
(S'S2'
I0
I1
tRp1539
(I3
S'|'
NNNI2
I1
I0
tbS'T1'
tRp1540
sI182
g1518
sI183
g1519
sI184
g1520
sI185
g1521
sI186
S'metamer1'
p1541
sI187
g1523
sI188
g1520
sI189
g1521
sI190
g1524
sI191
g1520
sI192
g1521
sI193
g1525
sI194
g1520
sI195
g1521
sI196
g1526
sI197
g1527
sI198
g1526
sI199
g1527
sI201
g1527
sI202
S'metamer2'
p1542
sI203
g1523
sI204
g1520
sI205
g1521
sI206
g1524
sI207
g1520
sI208
g1521
sI209
g1525
sI210
g1520
sI211
g1521
sI212
g1526
sI213
g1527
sI214
g1526
sI215
g1527
sI217
g1527
sI218
S'metamer3'
p1543
sI219
g1523
sI220
g1520
sI221
g1521
sI222
g1524
sI223
g1520
sI224
g1521
sI225
g1525
sI226
g1520
sI227
g1521
sI228
g1526
sI229
g1527
sI230
g1526
sI231
g1527
sI233
g1527
sI234
S'metamer4'
p1544
sI235
g1523
sI236
g1520
sI237
g1521
sI238
g1524
sI239
g1520
sI240
g1521
sI241
g1525
sI242
g1520
sI243
g1521
sI244
g1526
sI245
g1527
sI246
g1526
sI247
g1527
sI249
g1527
sI250
S'metamer5'
p1545
sI251
g1523
sI252
g1520
sI253
g1521
sI254
g1524
sI255
g1520
sI256
g1521
sI257
g1525
sI258
g1520
sI259
g1521
sI260
g1526
sI261
g1527
sI262
g1526
sI263
g1527
sI265
g1527
sI266
S'metamer6'
p1546
sI267
g1523
sI268
g1520
sI269
g1521
sI270
g1524
sI271
g1520
sI272
g1521
sI273
g1525
sI274
g1520
sI275
g1521
sI276
g1526
sI277
g1527
sI278
g1526
sI279
g1527
sI281
g1527
sI282
S'metamer7'
p1547
sI283
g1523
sI284
g1520
sI285
g1521
sI286
g1524
sI287
g1520
sI288
g1521
sI289
g1525
sI290
g1520
sI291
g1521
sI292
g1526
sI293
g1527
sI294
g1526
sI295
g1527
sI297
g1527
sI298
S'metamer8'
p1548
sI299
g1523
sI300
g1520
sI301
g1521
sI302
g1524
sI303
g1520
sI304
g1521
sI305
g1525
sI306
g1520
sI307
g1521
sI308
g1526
sI309
g1527
sI310
g1526
sI311
g1527
sI313
g1527
sI314
g906
(g907
(S'S2'
I0
I1
tRp1549
(I3
S'|'
NNNI2
I1
I0
tbS'T2'
tRp1550
sI315
g1518
sI316
g1519
sI317
g1520
sI318
g1521
sI319
S'metamer1'
p1551
sI320
g1523
sI321
g1520
sI322
g1521
sI323
g1524
sI324
g1520
sI325
g1521
sI326
g1525
sI327
g1520
sI328
g1521
sI329
g1526
sI330
g1527
sI331
g1526
sI332
g1527
sI334
g1527
sI335
S'metamer2'
p1552
sI336
g1523
sI337
g1520
sI338
g1521
sI339
g1524
sI340
g1520
sI341
g1521
sI342
g1525
sI343
g1520
sI344
g1521
sI345
g1526
sI346
g1527
sI347
g1526
sI348
g1527
sI350
g1527
sI351
S'metamer3'
p1553
sI352
g1523
sI353
g1520
sI354
g1521
sI355
g1524
sI356
g1520
sI357
g1521
sI358
g1525
sI359
g1520
sI360
g1521
sI361
g1526
sI362
g1527
sI363
g1526
sI364
g1527
sI366
g1527
sI367
S'metamer4'
p1554
sI368
g1523
sI369
g1520
sI370
g1521
sI371
g1524
sI372
g1520
sI373
g1521
sI374
g1525
sI375
g1520
sI376
g1521
sI377
g1526
sI378
g1527
sI379
g1526
sI380
g1527
sI382
g1527
sI383
S'metamer5'
p1555
sI384
g1523
sI385
g1520
sI386
g1521
sI387
g1524
sI388
g1520
sI389
g1521
sI390
g1525
sI391
g1520
sI392
g1521
sI393
g1526
sI394
g1527
sI395
g1526
sI396
g1527
sI398
g1527
sI399
S'metamer6'
p1556
sI400
g1523
sI401
g1520
sI402
g1521
sI403
g1524
sI404
g1520
sI405
g1521
sI406
g1525
sI407
g1520
sI408
g1521
sI409
g1526
sI410
g1527
sI411
g1526
sI412
g1527
sI414
g1527
sI415
S'metamer7'
p1557
sI416
g1523
sI417
g1520
sI418
g1521
sI419
g1524
sI420
g1520
sI421
g1521
sI422
g1525
sI423
g1520
sI424
g1521
sI425
g1526
sI426
g1527
sI427
g1526
sI428
g1527
sI430
g1527
sI431
g906
(g907
(S'S4'
I0
I1
tRp1558
(I3
S'|'
NNNI4
I1
I0
tbS'T1.0'
tRp1559
sI432
g1518
sI433
g1519
sI434
g1520
sI435
g1521
sI436
S'metamer1'
p1560
sI437
g1523
sI438
g1520
sI439
g1521
sI440
g1524
sI441
g1520
sI442
g1521
sI443
g1525
sI444
g1520
sI445
g1521
sI446
g1526
sI447
g1527
sI448
g1526
sI449
g1527
sI451
g1527
sI452
S'metamer2'
p1561
sI453
g1523
sI454
g1520
sI455
g1521
sI456
g1524
sI457
g1520
sI458
g1521
sI459
g1525
sI460
g1520
sI461
g1521
sI462
g1526
sI463
g1527
sI464
g1526
sI465
g1527
sI467
g1527
sI468
S'metamer3'
p1562
sI469
g1523
sI470
g1520
sI471
g1521
sI472
g1524
sI473
g1520
sI474
g1521
sI475
g1525
sI476
g1520
sI477
g1521
sI478
g1526
sI479
g1527
sI480
g1526
sI481
g1527
sI483
g1527
sI484
S'metamer4'
p1563
sI485
g1523
sI486
g1520
sI487
g1521
sI488
g1524
sI489
g1520
sI490
g1521
sI491
g1525
sI492
g1520
sI493
g1521
sI494
g1526
sI495
g1527
sI496
g1526
sI497
g1527
sI499
g1527
sI500
S'metamer5'
p1564
sI501
g1523
sI502
g1520
sI503
g1521
sI504
g1524
sI505
g1520
sI506
g1521
sI507
g1525
sI508
g1520
sI509
g1521
sI510
g1526
sI511
g1527
sI512
g1526
sI513
g1527
sI515
g1527
sI516
S'metamer6'
p1565
sI517
g1523
sI518
g1520
sI519
g1521
sI520
g1524
sI521
g1520
sI522
g1521
sI523
g1525
sI524
g1520
sI525
g1521
sI526
g1526
sI527
g1527
sI528
g1526
sI529
g1527
sI531
g1527
sI532
S'metamer7'
p1566
sI533
g1523
sI534
g1520
sI535
g1521
sI536
g1524
sI537
g1520
sI538
g1521
sI539
g1525
sI540
g1520
sI541
g1521
sI542
g1526
sI543
g1527
sI544
g1526
sI545
g1527
sI546
g1527
sI547
g906
(g907
(S'S2'
I0
I1
tRp1567
(I3
S'|'
NNNI2
I1
I0
tbS'T3'
tRp1568
sI548
g1518
sI549
g1519
sI550
g1520
sI551
g1521
sI552
S'metamer1'
p1569
sI553
g1523
sI554
g1520
sI555
g1521
sI556
g1524
sI557
g1520
sI558
g1521
sI559
g1525
sI560
g1520
sI561
g1521
sI562
g1526
sI563
g1527
sI564
g1526
sI565
g1527
sI567
g1527
sI568
S'metamer2'
p1570
sI569
g1523
sI570
g1520
sI571
g1521
sI572
g1524
sI573
g1520
sI574
g1521
sI575
g1525
sI576
g1520
sI577
g1521
sI578
g1526
sI579
g1527
sI580
g1526
sI581
g1527
sI583
g1527
sI584
S'metamer3'
p1571
sI585
g1523
sI586
g1520
sI587
g1521
sI588
g1524
sI589
g1520
sI590
g1521
sI591
g1525
sI592
g1520
sI593
g1521
sI594
g1526
sI595
g1527
sI596
g1526
sI597
g1527
sI599
g1527
sI600
S'metamer4'
p1572
sI601
g1523
sI602
g1520
sI603
g1521
sI604
g1524
sI605
g1520
sI606
g1521
sI607
g1525
sI608
g1520
sI609
g1521
sI610
g1526
sI611
g1527
sI612
g1526
sI613
g1527
sI615
g1527
sI616
S'metamer5'
p1573
sI617
g1523
sI618
g1520
sI619
g1521
sI620
g1524
sI621
g1520
sI622
g1521
sI623
g1525
sI624
g1520
sI625
g1521
sI626
g1526
sI627
g1527
sI628
g1526
sI629
g1527
sI631
g1527
sI632
S'metamer6'
p1574
sI633
g1523
sI634
g1520
sI635
g1521
sI636
g1524
sI637
g1520
sI638
g1521
sI639
g1525
sI640
g1520
sI641
g1521
sI642
g1526
sI643
g1527
sI644
g1526
sI645
g1527
sI647
g1527
sI648
S'metamer7'
p1575
sI649
g1523
sI650
g1520
sI651
g1521
sI652
g1524
sI653
g1520
sI654
g1521
sI655
g1525
sI656
g1520
sI657
g1521
sI658
g1526
sI659
g1527
sI660
g1526
sI661
g1527
sI662
g1527
sI663
g906
(g907
(S'S2'
I0
I1
tRp1576
(I3
S'|'
NNNI2
I1
I0
tbS'T4'
tRp1577
sI664
g1518
sI665
g1519
sI666
g1520
sI667
g1521
sI668
S'metamer1'
p1578
sI669
g1523
sI670
g1520
sI671
g1521
sI672
g1524
sI673
g1520
sI674
g1521
sI675
g1525
sI676
g1520
sI677
g1521
sI678
g1526
sI679
g1527
sI680
g1526
sI681
g1527
sI683
g1527
sI684
S'metamer2'
p1579
sI685
g1523
sI686
g1520
sI687
g1521
sI688
g1524
sI689
g1520
sI690
g1521
sI691
g1525
sI692
g1520
sI693
g1521
sI694
g1526
sI695
g1527
sI696
g1526
sI697
g1527
sI699
g1527
sI700
S'metamer3'
p1580
sI701
g1523
sI702
g1520
sI703
g1521
sI704
g1524
sI705
g1520
sI706
g1521
sI707
g1525
sI708
g1520
sI709
g1521
sI710
g1526
sI711
g1527
sI712
g1526
sI713
g1527
sI715
g1527
sI716
S'metamer4'
p1581
sI717
g1523
sI718
g1520
sI719
g1521
sI720
g1524
sI721
g1520
sI722
g1521
sI723
g1525
sI724
g1520
sI725
g1521
sI726
g1526
sI727
g1527
sI728
g1526
sI729
g1527
sI731
g1527
sI732
S'metamer5'
p1582
sI733
g1523
sI734
g1520
sI735
g1521
sI736
g1524
sI737
g1520
sI738
g1521
sI739
g1525
sI740
g1520
sI741
g1521
sI742
g1526
sI743
g1527
sI744
g1526
sI745
g1527
sI747
g1527
sI748
g906
(g907
(S'S4'
I0
I1
tRp1583
(I3
S'|'
NNNI4
I1
I0
tbS'T2.0'
tRp1584
sI749
g1518
sI750
g1519
sI751
g1520
sI752
g1521
sI753
S'metamer1'
p1585
sI754
g1523
sI755
g1520
sI756
g1521
sI757
g1524
sI758
g1520
sI759
g1521
sI760
g1525
sI761
g1520
sI762
g1521
sI763
g1526
sI764
g1527
sI765
g1526
sI766
g1527
sI767
g1527
sI768
S'metamer2'
p1586
sI769
g1523
sI770
g1520
sI771
g1521
sI772
g1524
sI773
g1520
sI774
g1521
sI775
g1525
sI776
g1520
sI777
g1521
sI778
g1526
sI779
g1527
sI780
g1526
sI781
g1527
sI782
g1527
sI783
S'metamer3'
p1587
sI784
g1523
sI785
g1520
sI786
g1521
sI787
g1524
sI788
g1520
sI789
g1521
sI790
g1525
sI791
g1520
sI792
g1521
sI793
g1526
sI794
g1527
sI795
g1526
sI796
g1527
sI797
g1527
sI798
S'metamer4'
p1588
sI799
g1523
sI800
g1520
sI801
g1521
sI802
g1524
sI803
g1520
sI804
g1521
sI805
g1525
sI806
g1520
sI807
g1521
sI808
g1526
sI809
g1527
sI810
g1526
sI811
g1527
sI812
g1527
sI813
S'LeafElement1'
p1589
sI814
S'LeafElement1'
p1590
ssS'anchor_point'
p1591
(dp1592
I512
copenalea.plantgl.math._pglmath
Vector3
p1593
(F-0.031232437417795231
F0.045514138698717045
F0.030236150829921968
tRp1594
sI129
g1593
(F0.0003271665659088591
F0.0017784065241729513
F0.04434370876133447
tRp1595
sI262
g1593
(F-0.016792692368879078
F0.037556650912223925
F0.022003913421661477
tRp1596
sI395
g1593
(F-0.016110090379972242
F0.014092520195444807
F0.011785098599748786
tRp1597
sI145
g1593
(F-0.00026770170844720646
F0.0017784065241729513
F0.063613292010979247
tRp1598
sI19
g1593
(F0.0016960942260277802
F0.0017784065241729513
F0
tRp1599
sI278
g1593
(F-0.021537693036375295
F0.046738854007688881
F0.027651043553071741
tRp1600
sI34
g1593
(F0.0008166941459317674
F0.0017784065241729513
F0.028486429321681002
tRp1601
sI680
g1593
(F0.00080135950964295736
F0.0017784065241729513
F0.028983164587803766
tRp1602
sI813
g1593
(F0.0008166941459317674
F0.0017784065241729513
F0.028486429321681002
tRp1603
sI814
g1593
(F0.00080126607435113562
F0.0017784065241729513
F0.028986191239605229
tRp1604
sI51
g1593
(F0.00080126607435113562
F0.0017784065241729513
F0.028986191239605229
tRp1605
sI564
g1593
(F0.00080135950964295736
F0.0017784065241729513
F0.028983164587803766
tRp1606
sI696
g1593
(F-0.0063880028273572594
F0.0019213935316636449
F0.032941558578933008
tRp1607
sI448
g1593
(F0.0016960942260277802
F0.0017784065241729513
F0
tRp1608
sI65
g1593
(F0.00080135950964295736
F0.0017784065241729513
F0.028983164587803766
tRp1609
sI580
g1593
(F0.0043704492415239061
F0.0017723651418566258
F0.030986757784571117
tRp1610
sI198
g1593
(F0.0016960942260277802
F0.0017784065241729513
F0
tRp1611
sI712
g1593
(F-0.013647981485641385
F0.0020657850053624779
F0.036938833239688162
tRp1612
sI331
g1593
(F0.0016960942260277802
F0.0017784065241729513
F0
tRp1613
sI464
g1593
(F-0.015726265033737426
F0.024918813957940721
F0.015997830941549648
tRp1614
sI81
g1593
(F0.00078787831273436477
F0.0017784065241729513
F0.029419861344604559
tRp1615
sI596
g1593
(F0.010581322317131235
F0.0017618520246231899
F0.034473378736999287
tRp1616
sI214
g1593
(F-0.0091766832039780269
F0.022818667120549443
F0.012939932644836071
tRp1617
sI347
g1593
(F0.001342708881185642
F0.002022795055598227
F0.00023388958526620479
tRp1618
sI480
g1593
(F-0.019476422319409704
F0.029899779293191112
F0.019441358960108849
tRp1619
sI97
g1593
(F0.00071004585428468723
F0.0017784065241729513
F0.031941090164958247
tRp1620
sI612
g1593
(F0.019189896888983073
F0.0017472803287303701
F0.039306006309222534
tRp1621
sI230
g1593
(F-0.010852858117315834
F0.026062286996774334
F0.014934785442953505
tRp1622
sI363
g1593
(F-0.0028151864907797158
F0.0048982452082594451
F0.0029858102246568185
tRp1623
sI496
g1593
(F-0.024674324169420774
F0.036803641440481746
F0.024214257613351629
tRp1624
sI113
g1593
(F0.00058582639064286366
F0.0017784065241729513
F0.035964934432772724
tRp1625
sI628
g1593
(F0.030051203735160011
F0.001728895442935387
F0.045403258589157267
tRp1626
sI246
g1593
(F-0.01345608307158053
F0.031099871163407108
F0.018032940977212759
tRp1627
sI379
g1593
(F-0.0083958256622661369
F0.008757613547778955
F0.0066793798658154498
tRp1628
ssS'visible_length'
p1629
(dp1630
I4
F0
sI517
F0
sI257
F0
sI8
F0
sI11
F0.028500000000000001
sI14
F0.08199999999999999
sI533
F0
sI23
F0
sI536
F0
sI26
F0.00050000000000000001
sI539
F0
sI29
F0.091999999999999998
sI549
F0
sI38
F0
sI41
F0
sI44
g906
(g908
S':`\xdf#\x86\x87\xb8?'
tRp1631
sI559
F0
sI520
F0
sI54
F0
sI57
F0
sI60
F0
sI575
F0
sI523
F0
sI70
F0
sI73
F0
sI76
F0
sI591
F0
sI86
F0
sI601
F0
sI92
F0
sI607
F0
sI102
F0
sI105
F0
sI108
F0
sI623
F0
sI89
F0
sI617
F0
sI633
F0
sI636
F0
sI639
F0
sI134
F0
sI137
F0
sI140
F0
sI655
F0
sI150
F0
sI153
F0
sI156
F0
sI669
F0
sI672
F0
sI675
F0
sI166
F0
sI169
F0
sI172
F0
sI685
F0
sI688
F0
sI691
F0
sI183
F0
sI187
F0
sI701
F0
sI190
F0
sI704
F0
sI193
F0
sI707
F0
sI118
F0
sI203
F0
sI717
F0
sI206
F0
sI720
F0
sI209
F0
sI723
F0
sI121
F0
sI219
F0
sI733
F0
sI222
F0
sI604
F0
sI225
F0
sI739
F0
sI124
F0
sI235
F0
sI238
F0
sI241
F0
sI754
F0
sI757
F0
sI553
F0
sI760
F0
sI251
F0
sI254
F0
sI769
F0
sI772
F0
sI775
F0
sI556
F0
sI267
F0
sI270
F0
sI784
F0
sI273
F0
sI787
F0
sI790
F0
sI283
F0
sI286
F0
sI799
F0
sI289
F0
sI802
F0
sI805
F0
sI299
F0
sI302
F0
sI305
F0
sI649
F0
sI316
F0
sI320
F0
sI736
F0
sI323
F0
sI326
F0
sI652
F0
sI336
F0
sI339
F0
sI342
F0
sI569
F0
sI352
F0
sI355
F0
sI358
F0
sI572
F0
sI368
F0
sI371
F0
sI374
F0
sI384
F0
sI387
F0
sI390
F0
sI400
F0
sI403
F0
sI750
F0
sI406
F0
sI665
F0
sI416
F0
sI419
F0
sI422
F0
sI433
F0
sI437
F0
sI585
F0
sI440
F0
sI443
F0
sI453
F0
sI620
F0
sI456
F0
sI588
F0
sI459
F0
sI469
F0
sI472
F0
sI475
F0
sI485
F0
sI488
F0
sI491
F0
sI501
F0
sI504
F0
sI507
F0
ssS'green_length'
p1632
(dp1633
I512
F0
sI526
F0
sI528
F0
sI17
F0
sI19
F0.028500000000000001
sI542
F0
sI32
F0
sI34
F0.00050000000000000001
sI47
F0
sI49
F0
sI562
F0
sI51
g906
(g908
S':`\xdf#\x86\x87\xb8?'
tRp1634
sI564
F0
sI63
F0
sI65
F0
sI578
F0
sI580
F0
sI79
F0
sI81
F0
sI594
F0
sI596
F0
sI95
F0
sI97
F0
sI610
F0
sI612
F0
sI111
F0
sI113
F0
sI626
F0
sI628
F0
sI127
F0
sI129
F0
sI642
F0
sI644
F0
sI143
F0
sI145
F0
sI658
F0
sI660
F0
sI159
F0
sI161
F0
sI710
F0
sI678
F0
sI680
F0
sI175
F0
sI177
F0
sI694
F0
sI696
F0
sI544
F0
sI196
F0
sI198
F0
sI712
F0
sI212
F0
sI726
F0
sI728
F0
sI228
F0
sI230
F0
sI744
F0
sI244
F0
sI246
F0
sI763
F0
sI765
F0
sI260
F0
sI214
F0
sI262
F0
sI778
F0
sI780
F0
sI276
F0
sI278
F0
sI793
F0
sI795
F0
sI292
F0
sI294
F0
sI808
F0
sI810
F0
sI813
F0.08199999999999999
sI814
F0.091999999999999998
sI308
F0
sI310
F0
sI329
F0
sI331
F0
sI345
F0
sI347
F0
sI742
F0
sI361
F0
sI363
F0
sI377
F0
sI379
F0
sI393
F0
sI395
F0
sI409
F0
sI411
F0
sI425
F0
sI427
F0
sI446
F0
sI448
F0
sI462
F0
sI464
F0
sI478
F0
sI480
F0
sI494
F0
sI496
F0
sI510
F0
ssS'shape_mature_length'
p1635
(dp1636
I257
g1154
sI790
g1142
sI390
g1155
sI775
g1107
sI44
g1144
sI523
g1108
sI140
g1109
sI14
F0.08199999999999999
sI655
g1111
sI273
g1112
sI406
g1113
sI26
F0.029000000000000001
sI539
g1114
sI156
g1115
sI29
F0.091999999999999998
sI289
g1117
sI675
g1118
sI805
g1119
sI422
g1120
sI172
g1121
sI559
g1122
sI305
g1123
sI691
g1124
sI443
g1125
sI60
g1126
sI575
g1127
sI193
g1128
sI707
g1130
sI326
g1131
sI459
g1132
sI76
g1133
sI591
g1134
sI11
F0.028500000000000001
sI209
g1135
sI723
g1136
sI342
g1137
sI475
g1138
sI92
g1139
sI607
g1140
sI225
g1141
sI739
g1143
sI358
g1129
sI491
g1145
sI108
g1146
sI623
g1147
sI241
g1148
sI374
g1149
sI760
g1150
sI507
g1151
sI124
g1152
sI639
g1153
ssS'timetable'
p1637
(dp1638
I2
NsI547
NsI748
NsI431
NsI181
NsI663
NsI314
NssS'exposition'
p1639
(dp1640
I257
F1
sI790
F1
sI390
F1
sI775
F1
sI44
F0.99655910895857691
sI523
F0.38254214729370023
sI140
F1
sI14
F1
sI655
F0
sI273
F1
sI406
F0.70133279483037236
sI539
F0
sI156
F0.65000000000000069
sI29
F0.99569331341274026
sI289
F0.63764367816099254
sI675
F1
sI805
F1
sI422
F0.076332794830372155
sI172
F0.025000000000000556
sI559
F1
sI305
F0.012643678160985132
sI691
F1
sI443
F1
sI60
F1
sI575
F1
sI193
F1
sI707
F1
sI326
F1
sI459
F1
sI76
F1
sI591
F1
sI209
F1
sI723
F0.92388059701689906
sI342
F1
sI475
F1
sI92
F1
sI607
F1
sI225
F1
sI739
F0.2988805970167438
sI358
F1
sI491
F1
sI108
F1
sI623
F1
sI241
F1
sI374
F1
sI760
F1
sI507
F1
sI124
F1
sI639
F0.38254214729370023
ssS'inclination'
p1641
(dp1642
I512
g906
(g908
S'\x00\x00\x00\x00\x00\x00\x00\x00'
tRp1643
sI517
g906
(g908
S'\x00\x00\x00\x00\x00\x00\x00\x00'
tRp1644
sI257
g906
(g908
S'\x00\x00\x00\x00\x00\x00\xf0?'
tRp1645
sI8
g906
(g908
S'\x00\x00\x80\xe1\x93J\xfc?'
tRp1646
sI11
g906
(g908
S'\x00\x00\x00\x00\x00\x00\x00\x00'
tRp1647
sI572
g906
(g908
S'\x00\x00\x00\x00\x00\x00\x00\x00'
tRp1648
sI14
g906
(g908
S'\x00\x00\x00\x00\x00\x00\x00\x00'
tRp1649
sI528
g906
(g908
S'\x00\x00\x00\x00\x00\x00\x00\x00'
tRp1650
sI17
g1646
sI19
g1647
sI533
g906
(g908
S'\x00\x00\x00\x00\x00\x00\x00\x00'
tRp1651
sI23
g906
(g908
S'\x00\x00\x00\x00\x00\x00\x00\x00'
tRp1652
sI536
g906
(g908
S'\x00\x00\x00\x00\x00\x00\x00\x00'
tRp1653
sI260
g906
(g908
S'\x00\x00\x00\x00\x00\x00\x00\x00'
tRp1654
sI26
g906
(g908
S'\x00\x00\x00\x00\x00\x00\x00\x00'
tRp1655
sI539
g906
(g908
S'\x00\x00\x00\x00\x00\x00\x00\x00'
tRp1656
sI29
g906
(g908
S'\x00\x00\x00\x00\x00\x00\x00\x00'
tRp1657
sI542
g1651
sI32
g1652
sI34
g1655
sI347
g906
(g908
S'\x00\x00\x00\x00\x00\x00\x00\x00'
tRp1658
sI38
g906
(g908
S'\x00\x00\x00\x00\x00\x00\x00\x00'
tRp1659
sI41
g906
(g908
S'\x00\x00\x00\x00\x00\x00\x00\x00'
tRp1660
sI44
g906
(g908
S'qA\xb0\xed\xcf\xe3\xef?'
tRp1661
sI47
g1659
sI49
g1660
sI562
g906
(g908
S'\x00\x00\x03\xe5\xd1:O@'
tRp1662
sI564
g906
(g908
S'\x00\x00\x00\x00\x00\x00\x00\x00'
tRp1663
sI54
g906
(g908
S'\x00\x00\x00\x00\x00\x00\x00\x00'
tRp1664
sI57
g906
(g908
S'\x00\x00\x00\x00\x00\x00\x00\x00'
tRp1665
sI607
g906
(g908
S'\x00\x00\x00\x00\x00\x00\xf0?'
tRp1666
sI60
g906
(g908
S'\x00\x00\x00\x00\x00\x00\xf0?'
tRp1667
sI63
g1664
sI65
g1665
sI578
g906
(g908
S'\x00\x00\x00\x00\x00\x00\x00\x00'
tRp1668
sI523
g906
(g908
S'\xa7\xf4\xfd\x0e\x92{\xd8?'
tRp1669
sI580
g1648
sI70
g906
(g908
S'\x00\x00\x00\x00\x00\x00\x00\x00'
tRp1670
sI73
g906
(g908
S'\x00\x00\x00\x00\x00\x00\x00\x00'
tRp1671
sI76
g906
(g908
S'\x00\x00\x00\x00\x00\x00\xf0?'
tRp1672
sI79
g1670
sI81
g1671
sI594
g906
(g908
S'\x00\x00\x00\x00\x00\x00\x00\x00'
tRp1673
sI596
g906
(g908
S'\x00\x00\x00\x00\x00\x00\x00\x00'
tRp1674
sI526
g1644
sI86
g906
(g908
S'\x00\x00\x00\x00\x00\x00\x00\x00'
tRp1675
sI89
g906
(g908
S'\x00\x00\x00\x00\x00\x00\x00\x00'
tRp1676
sI92
g906
(g908
S'\x00\x00\x00\x00\x00\x00\xf0?'
tRp1677
sI95
g1675
sI97
g1676
sI610
g906
(g908
S'\x00\x00\x00\x00\x00\x00\x00\x00'
tRp1678
sI612
g906
(g908
S'\x00\x00\x00\x00\x00\x00\x00\x00'
tRp1679
sI102
g906
(g908
S'\x00\x00\x00\x00\x00\x00\x00\x00'
tRp1680
sI105
g906
(g908
S'\x00\x00\x00\x00\x00\x00\x00\x00'
tRp1681
sI108
g906
(g908
S'\x00\x00\x00\x00\x00\x00\xf0?'
tRp1682
sI623
g906
(g908
S'\x00\x00\x00\x00\x00\x00\xf0?'
tRp1683
sI113
g1681
sI626
g906
(g908
S'\x00\x00\x00\x00\x00\x00\x00\x00'
tRp1684
sI628
g906
(g908
S'\x00\x00\x00\x00\x00\x00\x00\x00'
tRp1685
sI118
g906
(g908
S'\x00\x00\x00\x00\x00\x00\x00\x00'
tRp1686
sI617
g1684
sI121
g906
(g908
S'\x00\x00\x00\x00\x00\x00\x00\x00'
tRp1687
sI379
g906
(g908
S'\x00\x00\x00\x00\x00\x00\x00\x00'
tRp1688
sI124
g906
(g908
S'\x00\x00\x00\x00\x00\x00\xf0?'
tRp1689
sI127
g1686
sI129
g1687
sI642
g906
(g908
S'\x00\x00\x00\x00\x00\x00\x00\x00'
tRp1690
sI644
g906
(g908
S'\x00\x00\x00\x00\x00\x00\x00\x00'
tRp1691
sI278
g906
(g908
S'\x00\x00\x00\x00\x00\x00\x00\x00'
tRp1692
sI134
g906
(g908
S'\x00\x00\x00\x00\x00\x00\x00\x00'
tRp1693
sI137
g906
(g908
S'\x00\x00\x00\x00\x00\x00\x00\x00'
tRp1694
sI652
g906
(g908
S'\x00\x00\x00\x00\x00\x00\x00\x00'
tRp1695
sI143
g1693
sI145
g1694
sI658
g906
(g908
S'\x00\x00\x00\x00\x00\x00\x00\x00'
tRp1696
sI660
g1695
sI150
g906
(g908
S'\x00\x00\x00\x00\x00\x00\x00\x00'
tRp1697
sI153
g906
(g908
S'\x00\x00\x00\x00\x00\x00\x00\x00'
tRp1698
sI111
g1680
sI156
g906
(g908
S'\xd3\xcc\xcc\xcc\xcc\xcc\xe4?'
tRp1699
sI669
g906
(g908
S'\x00\x80\xbb\xf68\xb3M@'
tRp1700
sI159
g1697
sI672
g906
(g908
S'\x00\x00\x00\x00\x00\x00\x00\x00'
tRp1701
sI161
g1698
sI675
g906
(g908
S'\x00\x00\x00\x00\x00\x00\xf0?'
tRp1702
sI198
g906
(g908
S'\x00\x00\x00\x00\x00\x00\x00\x00'
tRp1703
sI166
g906
(g908
S'\x00\x00\x00\x00\x00\x00\x00\x00'
tRp1704
sI680
g1701
sI169
g906
(g908
S'\x00\x00\x00\x00\x00\x00\x00\x00'
tRp1705
sI172
g906
(g908
S':\x9a\x99\x99\x99\x99\x99?'
tRp1706
sI685
g906
(g908
S'\x00\x00\x00\x00\x00\x00\x00\x00'
tRp1707
sI175
g1704
sI688
g906
(g908
S'\x00\x00\x00\x00\x00\x00\x00\x00'
tRp1708
sI177
g1705
sI691
g906
(g908
S'\x00\x00\x00\x00\x00\x00\xf0?'
tRp1709
sI694
g1707
sI696
g1708
sI187
g906
(g908
S'\x00\x00y\xd1\xb2\xacN@'
tRp1710
sI701
g906
(g908
S'\x00\x00\x00\x00\x00\x00\x00\x00'
tRp1711
sI190
g1703
sI704
g906
(g908
S'\x00\x00\x00\x00\x00\x00\x00\x00'
tRp1712
sI193
g906
(g908
S'\x00\x00\x00\x00\x00\x00\xf0?'
tRp1713
sI707
g906
(g908
S'\x00\x00\x00\x00\x00\x00\xf0?'
tRp1714
sI196
g1710
sI710
g1711
sI712
g1712
sI203
g906
(g908
S'\x00\x00\x00\x00\x00\x00\x00\x00'
tRp1715
sI717
g906
(g908
S'\x00\x00\x00\x00\x00\x00\x00\x00'
tRp1716
sI206
g906
(g908
S'\x00\x00\x00\x00\x00\x00\x00\x00'
tRp1717
sI720
g906
(g908
S'\x00\x00\x00\x00\x00\x00\x00\x00'
tRp1718
sI209
g906
(g908
S'\x00\x00\x00\x00\x00\x00\xf0?'
tRp1719
sI723
g906
(g908
S'\xd4\x16\xb3\nn\x90\xed?'
tRp1720
sI212
g1715
sI214
g1717
sI633
g1690
sI728
g1718
sI219
g906
(g908
S'\x00\x00\x00\x00\x00\x00\x00\x00'
tRp1721
sI733
g906
(g908
S'\x00\x00\x00\x00\x00\x00\x00\x00'
tRp1722
sI222
g906
(g908
S'\x00\x00\x00\x00\x00\x00\x00\x00'
tRp1723
sI604
g1679
sI225
g906
(g908
S'\x00\x00\x00\x00\x00\x00\xf0?'
tRp1724
sI739
g906
(g908
S'\xbb"f\x15\xdc \xd3?'
tRp1725
sI228
g1721
sI230
g1723
sI744
g906
(g908
S'\x00\x00\x00\x00\x00\x00\x00\x00'
tRp1726
sI636
g1691
sI235
g906
(g908
S'\x00\x00\x00\x00\x00\x00\x00\x00'
tRp1727
sI238
g906
(g908
S'\x00\x00\x00\x00\x00\x00\x00\x00'
tRp1728
sI241
g906
(g908
S'\x00\x00\x00\x00\x00\x00\xf0?'
tRp1729
sI754
g906
(g908
S'\x00\x00\x04\xa0\x90\xb1N@'
tRp1730
sI244
g1727
sI757
g906
(g908
S'\x00\x00\x00\x00\x00\x00\x00\x00'
tRp1731
sI246
g1728
sI553
g1662
sI760
g906
(g908
S'\x00\x00\x00\x00\x00\x00\x00\x00'
tRp1732
sI639
g906
(g908
S'\xa7\xf4\xfd\x0e\x92{\xd8?'
tRp1733
sI765
g1731
sI254
g906
(g908
S'\x00\x00\x00\x00\x00\x00\x00\x00'
tRp1734
sI769
g906
(g908
S'\x00\x00\x00\x00\x00\x00\x00\x00'
tRp1735
sI772
g906
(g908
S'\x00\x00\x00\x00\x00\x00\x00\x00'
tRp1736
sI726
g1716
sI262
g1734
sI775
g906
(g908
S'\x00\x00\x00\x00\x00\x00\x00\x00'
tRp1737
sI556
g1663
sI778
g1735
sI267
g906
(g908
S'\x00\x00\x00\x00\x00\x00\x00\x00'
tRp1738
sI780
g1736
sI270
g1692
sI784
g906
(g908
S'\x00\x00\x00\x00\x00\x00\x00\x00'
tRp1739
sI273
g906
(g908
S'\x00\x00\x00\x00\x00\x00\xf0?'
tRp1740
sI787
g906
(g908
S'\x00\x00\x00\x00\x00\x00\x00\x00'
tRp1741
sI276
g1738
sI790
g906
(g908
S'\x00\x00\x00\x00\x00\x00\x00\x00'
tRp1742
sI793
g1739
sI283
g906
(g908
S'\x00\x00\x00\x00\x00\x00\x00\x00'
tRp1743
sI601
g1678
sI286
g906
(g908
S'\x00\x00\x00\x00\x00\x00\x00\x00'
tRp1744
sI799
g906
(g908
S'\x00\x00\x00\x00\x00\x00\x00\x00'
tRp1745
sI289
g906
(g908
S'\xcd{\x06\xb7\x93g\xe4?'
tRp1746
sI802
g906
(g908
S'\x00\x00\x00\x00\x00\x00\x00\x00'
tRp1747
sI475
g906
(g908
S'\x00\x00\x00\x00\x00\x00\xf0?'
tRp1748
sI292
g1743
sI805
g906
(g908
S'\x00\x00\x00\x00\x00\x00\x00\x00'
tRp1749
sI294
g1744
sI808
g1745
sI810
g1747
sI299
g906
(g908
S'\x00\x00\x00\x00\x00\x00\x00\x00'
tRp1750
sI302
g906
(g908
S'\x00\x00\x00\x00\x00\x00\x00\x00'
tRp1751
sI305
g906
(g908
S'\x8f\xe2\x9e\xc1\xed\xe4\x89?'
tRp1752
sI308
g1750
sI310
g1751
sI649
g1696
sI585
g1673
sI320
g906
(g908
S'\x00\x008\x0b\x87\xfeM@'
tRp1753
sI736
g1726
sI323
g906
(g908
S'\x00\x00\x00\x00\x00\x00\x00\x00'
tRp1754
sI326
g906
(g908
S'\x00\x00\x00\x00\x00\x00\xf0?'
tRp1755
sI795
g1741
sI140
g906
(g908
S'\x00\x00\x00\x00\x00\x00\xf0?'
tRp1756
sI331
g1754
sI336
g906
(g908
S'\x00\x00\x00\x00\x00\x00\x00\x00'
tRp1757
sI339
g1658
sI342
g906
(g908
S'\x00\x00\x00\x00\x00\x00\xf0?'
tRp1758
sI569
g1668
sI345
g1757
sI655
g906
(g908
S'\x00\x00\x00\x00\x00\x00\x00\x00'
tRp1759
sI485
g906
(g908
S'\x00\x00\x00\x00\x00\x00\x00\x00'
tRp1760
sI352
g906
(g908
S'\x00\x00\x00\x00\x00\x00\x00\x00'
tRp1761
sI355
g906
(g908
S'\x00\x00\x00\x00\x00\x00\x00\x00'
tRp1762
sI742
g1722
sI358
g906
(g908
S'\x00\x00\x00\x00\x00\x00\xf0?'
tRp1763
sI361
g1761
sI363
g1762
sI368
g906
(g908
S'\x00\x00\x00\x00\x00\x00\x00\x00'
tRp1764
sI371
g1688
sI374
g906
(g908
S'\x00\x00\x00\x00\x00\x00\xf0?'
tRp1765
sI377
g1764
sI575
g906
(g908
S'\x00\x00\x00\x00\x00\x00\xf0?'
tRp1766
sI384
g906
(g908
S'\x00\x00\x00\x00\x00\x00\x00\x00'
tRp1767
sI387
g906
(g908
S'\x00\x00\x00\x00\x00\x00\x00\x00'
tRp1768
sI390
g906
(g908
S'\x00\x00\x00\x00\x00\x00\xf0?'
tRp1769
sI763
g1730
sI393
g1767
sI395
g1768
sI400
g906
(g908
S'\x00\x00\x00\x00\x00\x00\x00\x00'
tRp1770
sI403
g906
(g908
S'\x00\x00\x00\x00\x00\x00\x00\x00'
tRp1771
sI406
g906
(g908
S'K\x14-yQq\xe6?'
tRp1772
sI409
g1770
sI411
g1771
sI520
g1650
sI416
g906
(g908
S'\x00\x00\x00\x00\x00\x00\x00\x00'
tRp1773
sI419
g906
(g908
S'\x00\x00\x00\x00\x00\x00\x00\x00'
tRp1774
sI422
g906
(g908
S'I\xa2h\xc9\x8b\x8a\xb3?'
tRp1775
sI425
g1773
sI427
g1774
sI437
g906
(g908
S'\x00\x00\xcc\x9dF\x8bN@'
tRp1776
sI329
g1753
sI440
g906
(g908
S'\x00\x00\x00\x00\x00\x00\x00\x00'
tRp1777
sI443
g906
(g908
S'\x00\x00\x00\x00\x00\x00\xf0?'
tRp1778
sI446
g1776
sI448
g1777
sI453
g906
(g908
S'\x00\x00\x00\x00\x00\x00\x00\x00'
tRp1779
sI620
g1685
sI456
g906
(g908
S'\x00\x00\x00\x00\x00\x00\x00\x00'
tRp1780
sI588
g1674
sI459
g906
(g908
S'\x00\x00\x00\x00\x00\x00\xf0?'
tRp1781
sI462
g1779
sI464
g1780
sI469
g906
(g908
S'\x00\x00\x00\x00\x00\x00\x00\x00'
tRp1782
sI544
g1653
sI472
g906
(g908
S'\x00\x00\x00\x00\x00\x00\x00\x00'
tRp1783
sI510
g906
(g908
S'\x00\x00\x00\x00\x00\x00\x00\x00'
tRp1784
sI591
g906
(g908
S'\x00\x00\x00\x00\x00\x00\xf0?'
tRp1785
sI478
g1782
sI480
g1783
sI251
g1654
sI678
g1700
sI488
g906
(g908
S'\x00\x00\x00\x00\x00\x00\x00\x00'
tRp1786
sI491
g906
(g908
S'\x00\x00\x00\x00\x00\x00\xf0?'
tRp1787
sI494
g1760
sI496
g1786
sI501
g1784
sI504
g1643
sI507
g906
(g908
S'\x00\x00\x00\x00\x00\x00\xf0?'
tRp1788
sI559
g906
(g908
S'\x00\x00\x00\x00\x00\x00\xf0?'
tRp1789
ssS'senesced_length'
p1790
(dp1791
I512
F0
sI4
F0
sI517
F0
sI257
F0
sI8
F0
sI11
F0
sI12
F0
sI13
F0
sI14
F0
sI15
F0
sI528
F0
sI17
F0
sI19
F0
sI20
F0
sI533
F0
sI23
F0
sI536
F0
sI260
F0
sI26
F0
sI539
F0
sI28
F0
sI29
F0
sI542
F0
sI31
F0
sI32
F0
sI34
F0
sI35
F0
sI36
F0
sI549
F0
sI38
F0
sI41
F0
sI44
F0
sI47
F0
sI49
F0
sI562
F0
sI51
F0
sI564
F0
sI54
F0
sI57
F0
sI607
F0
sI60
F0
sI63
F0
sI65
F0
sI578
F0
sI523
F0
sI580
F0
sI70
F0
sI73
F0
sI76
F0
sI79
F0
sI81
F0
sI594
F0
sI596
F0
sI526
F0
sI86
F0
sI89
F0
sI92
F0
sI95
F0
sI97
F0
sI610
F0
sI612
F0
sI102
F0
sI105
F0
sI108
F0
sI21
F0
sI111
F0
sI113
F0
sI626
F0
sI628
F0
sI118
F0
sI617
F0
sI572
F0
sI121
F0
sI379
F0
sI124
F0
sI127
F0
sI129
F0
sI642
F0
sI644
F0
sI278
F0
sI134
F0
sI137
F0
sI140
F0
sI143
F0
sI145
F0
sI658
F0
sI660
F0
sI150
F0
sI153
F0
sI623
F0
sI156
F0
sI669
F0
sI159
F0
sI672
F0
sI161
F0
sI27
F0
sI198
F0
sI166
F0
sI680
F0
sI169
F0
sI172
F0
sI685
F0
sI175
F0
sI688
F0
sI177
F0
sI691
F0
sI30
F0
sI694
F0
sI183
F0
sI696
F0
sI347
F0
sI187
F0
sI701
F0
sI190
F0
sI704
F0
sI193
F0
sI707
F0
sI196
F0
sI710
F0
sI712
F0
sI203
F0
sI717
F0
sI206
F0
sI720
F0
sI209
F0
sI723
F0
sI212
F0
sI214
F0
sI633
F0
sI728
F0
sI219
F0
sI733
F0
sI222
F0
sI604
F0
sI225
F0
sI739
F0
sI228
F0
sI230
F0
sI744
F0
sI636
F0
sI235
F0
sI238
F0
sI241
F0
sI754
F0
sI244
F0
sI757
F0
sI246
F0
sI553
F0
sI760
F0
sI639
F0
sI765
F0
sI254
F0
sI769
F0
sI772
F0
sI726
F0
sI262
F0
sI775
F0
sI556
F0
sI778
F0
sI267
F0
sI780
F0
sI270
F0
sI784
F0
sI273
F0
sI787
F0
sI276
F0
sI814
F0
sI790
F0
sI793
F0
sI283
F0
sI601
F0
sI286
F0
sI799
F0
sI289
F0
sI802
F0
sI475
F0
sI292
F0
sI805
F0
sI294
F0
sI808
F0
sI810
F0
sI299
F0
sI813
F0
sI302
F0
sI305
F0
sI308
F0
sI310
F0
sI649
F0
sI316
F0
sI585
F0
sI320
F0
sI736
F0
sI323
F0
sI326
F0
sI795
F0
sI652
F0
sI331
F0
sI336
F0
sI339
F0
sI342
F0
sI569
F0
sI345
F0
sI655
F0
sI485
F0
sI352
F0
sI355
F0
sI742
F0
sI358
F0
sI361
F0
sI363
F0
sI368
F0
sI371
F0
sI374
F0
sI377
F0
sI575
F0
sI384
F0
sI387
F0
sI390
F0
sI763
F0
sI393
F0
sI395
F0
sI400
F0
sI403
F0
sI750
F0
sI406
F0
sI665
F0
sI409
F0
sI411
F0
sI520
F0
sI416
F0
sI419
F0
sI422
F0
sI425
F0
sI427
F0
sI433
F0
sI437
F0
sI329
F0
sI440
F0
sI443
F0
sI446
F0
sI448
F0
sI453
F0
sI620
F0
sI456
F0
sI588
F0
sI459
F0
sI462
F0
sI464
F0
sI675
F0
sI469
F0
sI544
F0
sI472
F0
sI510
F0
sI591
F0
sI478
F0
sI480
F0
sI251
F0
sI678
F0
sI16
F0
sI488
F0
sI491
F0
sI494
F0
sI496
F0
sI501
F0
sI504
F0
sI507
F0
sI559
F0
ssS'hasEar'
p1792
(dp1793
I2
g906
(g907
(S'i4'
I0
I1
tRp1794
(I3
S'<'
NNNI-1
I-1
I0
tbS'\x01\x00\x00\x00'
tRp1795
sI547
g906
(g1794
S'\x00\x00\x00\x00'
tRp1796
sI748
g906
(g1794
S'\x00\x00\x00\x00'
tRp1797
sI431
g906
(g1794
S'\x00\x00\x00\x00'
tRp1798
sI181
g906
(g1794
S'\x01\x00\x00\x00'
tRp1799
sI663
g906
(g1794
S'\x00\x00\x00\x00'
tRp1800
sI314
g906
(g1794
S'\x01\x00\x00\x00'
tRp1801
ssS'ntop'
p1802
(dp1803
I517
g906
(g908
S'\x00\x00\x00\x00\x00\x00\x14@'
tRp1804
sI257
g906
(g908
S'\x00\x00\x00\x00\x00\x00\x1c@'
tRp1805
sI8
g906
(g908
S'\x00\x00\x00\x00\x00\x00,@'
tRp1806
sI523
g1804
sI14
g1806
sI533
g906
(g908
S'\x00\x00\x00\x00\x00\x00\x10@'
tRp1807
sI23
g906
(g908
S'\x00\x00\x00\x00\x00\x00*@'
tRp1808
sI536
g1807
sI26
g1808
sI539
g1807
sI29
g1808
sI38
g906
(g908
S'\x00\x00\x00\x00\x00\x00(@'
tRp1809
sI41
g1809
sI44
g1809
sI559
g906
(g908
S'\x00\x00\x00\x00\x00\x00$@'
tRp1810
sI520
g1804
sI54
g906
(g908
S'\x00\x00\x00\x00\x00\x00&@'
tRp1811
sI57
g1811
sI60
g1811
sI575
g906
(g908
S'\x00\x00\x00\x00\x00\x00"@'
tRp1812
sI11
g1806
sI70
g906
(g908
S'\x00\x00\x00\x00\x00\x00$@'
tRp1813
sI73
g1813
sI76
g1813
sI591
g906
(g908
S'\x00\x00\x00\x00\x00\x00 @'
tRp1814
sI86
g906
(g908
S'\x00\x00\x00\x00\x00\x00"@'
tRp1815
sI601
g906
(g908
S'\x00\x00\x00\x00\x00\x00\x1c@'
tRp1816
sI92
g1815
sI607
g1816
sI102
g906
(g908
S'\x00\x00\x00\x00\x00\x00 @'
tRp1817
sI105
g1817
sI108
g1817
sI623
g906
(g908
S'\x00\x00\x00\x00\x00\x00\x18@'
tRp1818
sI89
g1815
sI617
g1818
sI633
g906
(g908
S'\x00\x00\x00\x00\x00\x00\x14@'
tRp1819
sI636
g1819
sI639
g1819
sI134
g906
(g908
S'\x00\x00\x00\x00\x00\x00\x18@'
tRp1820
sI137
g1820
sI140
g1820
sI655
g906
(g908
S'\x00\x00\x00\x00\x00\x00\x10@'
tRp1821
sI150
g906
(g908
S'\x00\x00\x00\x00\x00\x00\x14@'
tRp1822
sI153
g1822
sI156
g1822
sI669
g906
(g908
S'\x00\x00\x00\x00\x00\x00"@'
tRp1823
sI672
g1823
sI675
g1823
sI166
g906
(g908
S'\x00\x00\x00\x00\x00\x00\x10@'
tRp1824
sI169
g1824
sI172
g1824
sI685
g906
(g908
S'\x00\x00\x00\x00\x00\x00 @'
tRp1825
sI688
g1825
sI691
g1825
sI187
g906
(g908
S'\x00\x00\x00\x00\x00\x00&@'
tRp1826
sI701
g906
(g908
S'\x00\x00\x00\x00\x00\x00\x1c@'
tRp1827
sI190
g1826
sI704
g1827
sI193
g1826
sI707
g1827
sI118
g906
(g908
S'\x00\x00\x00\x00\x00\x00\x1c@'
tRp1828
sI203
g906
(g908
S'\x00\x00\x00\x00\x00\x00$@'
tRp1829
sI717
g906
(g908
S'\x00\x00\x00\x00\x00\x00\x18@'
tRp1830
sI206
g1829
sI720
g1830
sI209
g1829
sI723
g1830
sI121
g1828
sI219
g906
(g908
S'\x00\x00\x00\x00\x00\x00"@'
tRp1831
sI733
g906
(g908
S'\x00\x00\x00\x00\x00\x00\x14@'
tRp1832
sI222
g1831
sI604
g1816
sI225
g1831
sI739
g1832
sI124
g1828
sI235
g906
(g908
S'\x00\x00\x00\x00\x00\x00 @'
tRp1833
sI238
g1833
sI241
g1833
sI754
g906
(g908
S'\x00\x00\x00\x00\x00\x00$@'
tRp1834
sI757
g1834
sI553
g1810
sI760
g1834
sI251
g1805
sI254
g1805
sI769
g906
(g908
S'\x00\x00\x00\x00\x00\x00"@'
tRp1835
sI772
g1835
sI775
g1835
sI556
g1810
sI267
g906
(g908
S'\x00\x00\x00\x00\x00\x00\x18@'
tRp1836
sI270
g1836
sI784
g906
(g908
S'\x00\x00\x00\x00\x00\x00 @'
tRp1837
sI273
g1836
sI787
g1837
sI790
g1837
sI283
g906
(g908
S'\x00\x00\x00\x00\x00\x00\x14@'
tRp1838
sI286
g1838
sI799
g906
(g908
S'\x00\x00\x00\x00\x00\x00\x1c@'
tRp1839
sI289
g1838
sI802
g1839
sI805
g1839
sI299
g906
(g908
S'\x00\x00\x00\x00\x00\x00\x10@'
tRp1840
sI302
g1840
sI305
g1840
sI649
g1821
sI320
g906
(g908
S'\x00\x00\x00\x00\x00\x00$@'
tRp1841
sI736
g1832
sI323
g1841
sI326
g1841
sI652
g1821
sI336
g906
(g908
S'\x00\x00\x00\x00\x00\x00"@'
tRp1842
sI339
g1842
sI342
g1842
sI569
g1812
sI352
g906
(g908
S'\x00\x00\x00\x00\x00\x00 @'
tRp1843
sI355
g1843
sI358
g1843
sI572
g1812
sI368
g906
(g908
S'\x00\x00\x00\x00\x00\x00\x1c@'
tRp1844
sI371
g1844
sI374
g1844
sI384
g906
(g908
S'\x00\x00\x00\x00\x00\x00\x18@'
tRp1845
sI387
g1845
sI390
g1845
sI400
g906
(g908
S'\x00\x00\x00\x00\x00\x00\x14@'
tRp1846
sI403
g1846
sI406
g1846
sI416
g906
(g908
S'\x00\x00\x00\x00\x00\x00\x10@'
tRp1847
sI419
g1847
sI422
g1847
sI437
g906
(g908
S'\x00\x00\x00\x00\x00\x00$@'
tRp1848
sI585
g1814
sI440
g1848
sI443
g1848
sI453
g906
(g908
S'\x00\x00\x00\x00\x00\x00"@'
tRp1849
sI620
g1818
sI456
g1849
sI588
g1814
sI459
g1849
sI469
g906
(g908
S'\x00\x00\x00\x00\x00\x00 @'
tRp1850
sI472
g1850
sI475
g1850
sI485
g906
(g908
S'\x00\x00\x00\x00\x00\x00\x1c@'
tRp1851
sI488
g1851
sI491
g1851
sI501
g906
(g908
S'\x00\x00\x00\x00\x00\x00\x18@'
tRp1852
sI504
g1852
sI507
g1852
ssS'n_sect'
p1853
(dp1854
I257
I1
sI790
I1
sI390
I1
sI775
I1
sI44
I1
sI523
I1
sI140
I1
sI14
I1
sI655
I1
sI273
I1
sI406
I1
sI539
I1
sI156
I1
sI29
I1
sI289
I1
sI675
I1
sI805
I1
sI422
I1
sI172
I1
sI559
I1
sI305
I1
sI691
I1
sI443
I1
sI60
I1
sI575
I1
sI193
I1
sI707
I1
sI326
I1
sI459
I1
sI76
I1
sI591
I1
sI209
I1
sI723
I1
sI342
I1
sI475
I1
sI92
I1
sI607
I1
sI225
I1
sI739
I1
sI358
I1
sI491
I1
sI108
I1
sI623
I1
sI241
I1
sI374
I1
sI760
I1
sI507
I1
sI124
I1
sI639
I1
ssS'is_green'
p1855
(dp1856
I512
I01
sI513
I01
sI515
I01
sI526
I01
sI527
I01
sI528
I01
sI17
I01
sI18
I01
sI19
I01
sI20
I01
sI21
I01
sI542
I01
sI543
I01
sI32
I01
sI33
I01
sI34
I01
sI35
I01
sI36
I01
sI47
I01
sI48
I01
sI49
I01
sI50
I01
sI51
g906
(g907
(S'b1'
I0
I1
tRp1857
(I3
S'|'
NNNI-1
I-1
I0
tbS'\x01'
tRp1858
sI52
I01
sI565
I01
sI567
I01
sI63
I01
sI64
I01
sI65
I01
sI66
I01
sI779
I01
sI68
I01
sI581
I01
sI583
I01
sI610
I01
sI79
I01
sI80
I01
sI81
I01
sI82
I01
sI595
I01
sI84
I01
sI597
I01
sI599
I01
sI612
I01
sI95
I01
sI96
I01
sI97
I01
sI98
I01
sI611
I01
sI100
I01
sI613
I01
sI529
I01
sI615
I01
sI111
I01
sI112
I01
sI113
I01
sI626
I01
sI627
I01
sI116
I01
sI629
I01
sI631
I01
sI127
I01
sI128
I01
sI129
I01
sI130
I01
sI643
I01
sI132
I01
sI645
I01
sI647
I01
sI143
I01
sI144
I01
sI145
I01
sI146
I01
sI659
I01
sI148
I01
sI661
I01
sI662
I01
sI281
I01
sI363
I01
sI159
I01
sI160
I01
sI161
I01
sI162
I01
sI164
I01
sI198
I01
sI678
I01
sI679
I01
sI680
I01
sI681
I01
sI683
I01
sI114
I01
sI175
I01
sI176
I01
sI177
I01
sI178
I01
sI180
I01
sI694
I01
sI695
I01
sI696
I01
sI628
I01
sI699
I01
sI544
I01
sI196
I01
sI197
I01
sI710
I01
sI199
I01
sI712
I01
sI201
I01
sI715
I01
sI546
I01
sI212
I01
sI213
I01
sI214
I01
sI215
I01
sI728
I01
sI217
I01
sI731
I01
sI297
I01
sI228
I01
sI229
I01
sI230
I01
sI231
I01
sI744
I01
sI233
I01
sI747
I01
sI244
I01
sI245
I01
sI246
I01
sI247
I01
sI249
I01
sI763
I01
sI764
I01
sI765
I01
sI766
I01
sI767
I01
sI260
I01
sI261
I01
sI262
I01
sI263
I01
sI265
I01
sI778
I01
sI727
I01
sI780
I01
sI642
I01
sI782
I01
sI276
I01
sI277
I01
sI278
I01
sI279
I01
sI793
I01
sI794
I01
sI795
I01
sI796
I01
sI797
I01
sI292
I01
sI293
I01
sI294
I01
sI295
I01
sI808
I01
sI809
I01
sI810
I01
sI811
I01
sI812
I01
sI813
I01
sI814
I01
sI726
I01
sI563
I01
sI308
I01
sI309
I01
sI310
I01
sI311
I01
sI564
I01
sI377
I01
sI394
I01
sI329
I01
sI330
I01
sI331
I01
sI332
I01
sI334
I01
sI313
I01
sI345
I01
sI346
I01
sI347
I01
sI348
I01
sI350
I01
sI742
I01
sI361
I01
sI362
I01
sI743
I01
sI364
I01
sI658
I01
sI366
I01
sI745
I01
sI660
I01
sI378
I01
sI379
I01
sI380
I01
sI382
I01
sI393
I01
sI729
I01
sI395
I01
sI396
I01
sI578
I01
sI398
I01
sI531
I01
sI644
I01
sI579
I01
sI409
I01
sI580
I01
sI410
I01
sI411
I01
sI412
I01
sI414
I01
sI781
I01
sI425
I01
sI713
I01
sI427
I01
sI428
I01
sI430
I01
sI499
I01
sI446
I01
sI447
I01
sI448
I01
sI449
I01
sI451
I01
sI711
I01
sI697
I01
sI462
I01
sI463
I01
sI464
I01
sI465
I01
sI467
I01
sI478
I01
sI479
I01
sI480
I01
sI481
I01
sI483
I01
sI594
I01
sI494
I01
sI495
I01
sI496
I01
sI497
I01
sI562
I01
sI545
I01
sI596
I01
sI426
I01
sI510
I01
sI511
I01
ssS'green_area'
p1859
(dp1860
I512
g906
(g908
S'\x00\x00\x00\x00\x00\x00\x00\x00'
tRp1861
sI526
g906
(g908
S'\x00\x00\x00\x00\x00\x00\x00\x00'
tRp1862
sI528
g906
(g908
S'\x00\x00\x00\x00\x00\x00\x00\x00'
tRp1863
sI17
g906
(g908
S'\x00\x00\x00\x00\x00\x00\x00\x00'
tRp1864
sI19
F0.00026860617188192732
sI542
g906
(g908
S'\x00\x00\x00\x00\x00\x00\x00\x00'
tRp1865
sI32
g906
(g908
S'\x00\x00\x00\x00\x00\x00\x00\x00'
tRp1866
sI34
F4.7123889803846904e-06
sI47
g906
(g908
S'\x00\x00\x00\x00\x00\x00\x00\x00'
tRp1867
sI49
g906
(g908
S'\x00\x00\x00\x00\x00\x00\x00\x00'
tRp1868
sI562
g906
(g908
S'\x00\x00\x00\x00\x00\x00\x00\x00'
tRp1869
sI51
g906
(g908
S'\xcb\x9e\xac\xbaK\xc32?'
tRp1870
sI564
g906
(g908
S'\x00\x00\x00\x00\x00\x00\x00\x00'
tRp1871
sI63
g906
(g908
S'\x00\x00\x00\x00\x00\x00\x00\x00'
tRp1872
sI65
g906
(g908
S'\x00\x00\x00\x00\x00\x00\x00\x00'
tRp1873
sI578
g906
(g908
S'\x00\x00\x00\x00\x00\x00\x00\x00'
tRp1874
sI580
g906
(g908
S'\x00\x00\x00\x00\x00\x00\x00\x00'
tRp1875
sI79
g906
(g908
S'\x00\x00\x00\x00\x00\x00\x00\x00'
tRp1876
sI81
g906
(g908
S'\x00\x00\x00\x00\x00\x00\x00\x00'
tRp1877
sI594
g906
(g908
S'\x00\x00\x00\x00\x00\x00\x00\x00'
tRp1878
sI596
g906
(g908
S'\x00\x00\x00\x00\x00\x00\x00\x00'
tRp1879
sI95
g906
(g908
S'\x00\x00\x00\x00\x00\x00\x00\x00'
tRp1880
sI97
g906
(g908
S'\x00\x00\x00\x00\x00\x00\x00\x00'
tRp1881
sI610
g906
(g908
S'\x00\x00\x00\x00\x00\x00\x00\x00'
tRp1882
sI612
g906
(g908
S'\x00\x00\x00\x00\x00\x00\x00\x00'
tRp1883
sI111
g906
(g908
S'\x00\x00\x00\x00\x00\x00\x00\x00'
tRp1884
sI113
g906
(g908
S'\x00\x00\x00\x00\x00\x00\x00\x00'
tRp1885
sI626
g906
(g908
S'\x00\x00\x00\x00\x00\x00\x00\x00'
tRp1886
sI628
g906
(g908
S'\x00\x00\x00\x00\x00\x00\x00\x00'
tRp1887
sI127
g906
(g908
S'\x00\x00\x00\x00\x00\x00\x00\x00'
tRp1888
sI129
g906
(g908
S'\x00\x00\x00\x00\x00\x00\x00\x00'
tRp1889
sI642
g906
(g908
S'\x00\x00\x00\x00\x00\x00\x00\x00'
tRp1890
sI644
g906
(g908
S'\x00\x00\x00\x00\x00\x00\x00\x00'
tRp1891
sI143
g906
(g908
S'\x00\x00\x00\x00\x00\x00\x00\x00'
tRp1892
sI145
g906
(g908
S'\x00\x00\x00\x00\x00\x00\x00\x00'
tRp1893
sI658
g906
(g908
S'\x00\x00\x00\x00\x00\x00\x00\x00'
tRp1894
sI660
g906
(g908
S'\x00\x00\x00\x00\x00\x00\x00\x00'
tRp1895
sI159
g906
(g908
S'\x00\x00\x00\x00\x00\x00\x00\x00'
tRp1896
sI161
g906
(g908
S'\x00\x00\x00\x00\x00\x00\x00\x00'
tRp1897
sI710
g906
(g908
S'\x00\x00\x00\x00\x00\x00\x00\x00'
tRp1898
sI678
g906
(g908
S'\x00\x00\x00\x00\x00\x00\x00\x00'
tRp1899
sI680
g906
(g908
S'\x00\x00\x00\x00\x00\x00\x00\x00'
tRp1900
sI175
g906
(g908
S'\x00\x00\x00\x00\x00\x00\x00\x00'
tRp1901
sI177
g906
(g908
S'\x00\x00\x00\x00\x00\x00\x00\x00'
tRp1902
sI694
g906
(g908
S'\x00\x00\x00\x00\x00\x00\x00\x00'
tRp1903
sI696
g906
(g908
S'\x00\x00\x00\x00\x00\x00\x00\x00'
tRp1904
sI544
g906
(g908
S'\x00\x00\x00\x00\x00\x00\x00\x00'
tRp1905
sI196
g906
(g908
S'\x00\x00\x00\x00\x00\x00\x00\x00'
tRp1906
sI198
g906
(g908
S'\x00\x00\x00\x00\x00\x00\x00\x00'
tRp1907
sI712
g906
(g908
S'\x00\x00\x00\x00\x00\x00\x00\x00'
tRp1908
sI212
g906
(g908
S'\x00\x00\x00\x00\x00\x00\x00\x00'
tRp1909
sI726
g906
(g908
S'\x00\x00\x00\x00\x00\x00\x00\x00'
tRp1910
sI728
g906
(g908
S'\x00\x00\x00\x00\x00\x00\x00\x00'
tRp1911
sI228
g906
(g908
S'\x00\x00\x00\x00\x00\x00\x00\x00'
tRp1912
sI230
g906
(g908
S'\x00\x00\x00\x00\x00\x00\x00\x00'
tRp1913
sI744
g906
(g908
S'\x00\x00\x00\x00\x00\x00\x00\x00'
tRp1914
sI244
g906
(g908
S'\x00\x00\x00\x00\x00\x00\x00\x00'
tRp1915
sI246
g906
(g908
S'\x00\x00\x00\x00\x00\x00\x00\x00'
tRp1916
sI763
g906
(g908
S'\x00\x00\x00\x00\x00\x00\x00\x00'
tRp1917
sI765
g906
(g908
S'\x00\x00\x00\x00\x00\x00\x00\x00'
tRp1918
sI260
g906
(g908
S'\x00\x00\x00\x00\x00\x00\x00\x00'
tRp1919
sI214
g906
(g908
S'\x00\x00\x00\x00\x00\x00\x00\x00'
tRp1920
sI262
g906
(g908
S'\x00\x00\x00\x00\x00\x00\x00\x00'
tRp1921
sI778
g906
(g908
S'\x00\x00\x00\x00\x00\x00\x00\x00'
tRp1922
sI780
g906
(g908
S'\x00\x00\x00\x00\x00\x00\x00\x00'
tRp1923
sI276
g906
(g908
S'\x00\x00\x00\x00\x00\x00\x00\x00'
tRp1924
sI278
g906
(g908
S'\x00\x00\x00\x00\x00\x00\x00\x00'
tRp1925
sI793
g906
(g908
S'\x00\x00\x00\x00\x00\x00\x00\x00'
tRp1926
sI795
g906
(g908
S'\x00\x00\x00\x00\x00\x00\x00\x00'
tRp1927
sI292
g906
(g908
S'\x00\x00\x00\x00\x00\x00\x00\x00'
tRp1928
sI294
g906
(g908
S'\x00\x00\x00\x00\x00\x00\x00\x00'
tRp1929
sI808
g906
(g908
S'\x00\x00\x00\x00\x00\x00\x00\x00'
tRp1930
sI810
g906
(g908
S'\x00\x00\x00\x00\x00\x00\x00\x00'
tRp1931
sI813
g906
(g908
S'lr\xda\x80H\x9a)?'
tRp1932
sI814
g906
(g908
S'\xb0\xad\xb8\xd4\xf1\x98/?'
tRp1933
sI308
g906
(g908
S'\x00\x00\x00\x00\x00\x00\x00\x00'
tRp1934
sI310
g906
(g908
S'\x00\x00\x00\x00\x00\x00\x00\x00'
tRp1935
sI329
g906
(g908
S'\x00\x00\x00\x00\x00\x00\x00\x00'
tRp1936
sI331
g906
(g908
S'\x00\x00\x00\x00\x00\x00\x00\x00'
tRp1937
sI345
g906
(g908
S'\x00\x00\x00\x00\x00\x00\x00\x00'
tRp1938
sI347
g906
(g908
S'\x00\x00\x00\x00\x00\x00\x00\x00'
tRp1939
sI742
g906
(g908
S'\x00\x00\x00\x00\x00\x00\x00\x00'
tRp1940
sI361
g906
(g908
S'\x00\x00\x00\x00\x00\x00\x00\x00'
tRp1941
sI363
g906
(g908
S'\x00\x00\x00\x00\x00\x00\x00\x00'
tRp1942
sI377
g906
(g908
S'\x00\x00\x00\x00\x00\x00\x00\x00'
tRp1943
sI379
g906
(g908
S'\x00\x00\x00\x00\x00\x00\x00\x00'
tRp1944
sI393
g906
(g908
S'\x00\x00\x00\x00\x00\x00\x00\x00'
tRp1945
sI395
g906
(g908
S'\x00\x00\x00\x00\x00\x00\x00\x00'
tRp1946
sI409
g906
(g908
S'\x00\x00\x00\x00\x00\x00\x00\x00'
tRp1947
sI411
g906
(g908
S'\x00\x00\x00\x00\x00\x00\x00\x00'
tRp1948
sI425
g906
(g908
S'\x00\x00\x00\x00\x00\x00\x00\x00'
tRp1949
sI427
g906
(g908
S'\x00\x00\x00\x00\x00\x00\x00\x00'
tRp1950
sI446
g906
(g908
S'\x00\x00\x00\x00\x00\x00\x00\x00'
tRp1951
sI448
g906
(g908
S'\x00\x00\x00\x00\x00\x00\x00\x00'
tRp1952
sI462
g906
(g908
S'\x00\x00\x00\x00\x00\x00\x00\x00'
tRp1953
sI464
g906
(g908
S'\x00\x00\x00\x00\x00\x00\x00\x00'
tRp1954
sI478
g906
(g908
S'\x00\x00\x00\x00\x00\x00\x00\x00'
tRp1955
sI480
g906
(g908
S'\x00\x00\x00\x00\x00\x00\x00\x00'
tRp1956
sI494
g906
(g908
S'\x00\x00\x00\x00\x00\x00\x00\x00'
tRp1957
sI496
g906
(g908
S'\x00\x00\x00\x00\x00\x00\x00\x00'
tRp1958
sI510
g906
(g908
S'\x00\x00\x00\x00\x00\x00\x00\x00'
tRp1959
ssS'color'
p1960
(dp1961
sS'lrolled'
p1962
(dp1963
I51
I0
sI813
I0
sI814
I0
ssS'srb'
p1964
(dp1965
I51
g906
(g908
S'\x00\x00\x00\x00\x00\x00\x00\x00'
tRp1966
sI813
F0
sI814
F0
ssS'nff'
p1967
(dp1968
I2
g906
(g908
S'\x00\x00\x00\x00\x00\x00,@'
tRp1969
sI547
g906
(g908
S'\x00\x00\x00\x00\x00\x00$@'
tRp1970
sI748
g906
(g908
S'\x00\x00\x00\x00\x00\x00$@'
tRp1971
sI431
g906
(g908
S'\x00\x00\x00\x00\x00\x00$@'
tRp1972
sI181
g906
(g908
S'\x00\x00\x00\x00\x00\x00&@'
tRp1973
sI663
g906
(g908
S'\x00\x00\x00\x00\x00\x00"@'
tRp1974
sI314
g906
(g908
S'\x00\x00\x00\x00\x00\x00$@'
tRp1975
ssS'senesced_area'
p1976
(dp1977
I512
g906
(g908
S'\x00\x00\x00\x00\x00\x00\x00\x00'
tRp1978
sI12
F0
sI13
F0
sI526
g906
(g908
S'\x00\x00\x00\x00\x00\x00\x00\x00'
tRp1979
sI15
F0
sI528
g906
(g908
S'\x00\x00\x00\x00\x00\x00\x00\x00'
tRp1980
sI17
g906
(g908
S'\x00\x00\x00\x00\x00\x00\x00\x00'
tRp1981
sI19
F0
sI20
F0
sI21
F0
sI27
F0
sI28
F0
sI542
g906
(g908
S'\x00\x00\x00\x00\x00\x00\x00\x00'
tRp1982
sI31
F0
sI32
g906
(g908
S'\x00\x00\x00\x00\x00\x00\x00\x00'
tRp1983
sI34
F0
sI35
F0
sI36
F0
sI47
g906
(g908
S'\x00\x00\x00\x00\x00\x00\x00\x00'
tRp1984
sI49
g906
(g908
S'\x00\x00\x00\x00\x00\x00\x00\x00'
tRp1985
sI562
g906
(g908
S'\x00\x00\x00\x00\x00\x00\x00\x00'
tRp1986
sI51
I0
sI564
g906
(g908
S'\x00\x00\x00\x00\x00\x00\x00\x00'
tRp1987
sI63
g906
(g908
S'\x00\x00\x00\x00\x00\x00\x00\x00'
tRp1988
sI65
g906
(g908
S'\x00\x00\x00\x00\x00\x00\x00\x00'
tRp1989
sI578
g906
(g908
S'\x00\x00\x00\x00\x00\x00\x00\x00'
tRp1990
sI580
g906
(g908
S'\x00\x00\x00\x00\x00\x00\x00\x00'
tRp1991
sI79
g906
(g908
S'\x00\x00\x00\x00\x00\x00\x00\x00'
tRp1992
sI81
g906
(g908
S'\x00\x00\x00\x00\x00\x00\x00\x00'
tRp1993
sI594
g906
(g908
S'\x00\x00\x00\x00\x00\x00\x00\x00'
tRp1994
sI596
g906
(g908
S'\x00\x00\x00\x00\x00\x00\x00\x00'
tRp1995
sI95
g906
(g908
S'\x00\x00\x00\x00\x00\x00\x00\x00'
tRp1996
sI97
g906
(g908
S'\x00\x00\x00\x00\x00\x00\x00\x00'
tRp1997
sI610
g906
(g908
S'\x00\x00\x00\x00\x00\x00\x00\x00'
tRp1998
sI612
g906
(g908
S'\x00\x00\x00\x00\x00\x00\x00\x00'
tRp1999
sI111
g906
(g908
S'\x00\x00\x00\x00\x00\x00\x00\x00'
tRp2000
sI113
g906
(g908
S'\x00\x00\x00\x00\x00\x00\x00\x00'
tRp2001
sI626
g906
(g908
S'\x00\x00\x00\x00\x00\x00\x00\x00'
tRp2002
sI628
g906
(g908
S'\x00\x00\x00\x00\x00\x00\x00\x00'
tRp2003
sI127
g906
(g908
S'\x00\x00\x00\x00\x00\x00\x00\x00'
tRp2004
sI129
g906
(g908
S'\x00\x00\x00\x00\x00\x00\x00\x00'
tRp2005
sI642
g906
(g908
S'\x00\x00\x00\x00\x00\x00\x00\x00'
tRp2006
sI644
g906
(g908
S'\x00\x00\x00\x00\x00\x00\x00\x00'
tRp2007
sI143
g906
(g908
S'\x00\x00\x00\x00\x00\x00\x00\x00'
tRp2008
sI145
g906
(g908
S'\x00\x00\x00\x00\x00\x00\x00\x00'
tRp2009
sI658
g906
(g908
S'\x00\x00\x00\x00\x00\x00\x00\x00'
tRp2010
sI660
g906
(g908
S'\x00\x00\x00\x00\x00\x00\x00\x00'
tRp2011
sI159
g906
(g908
S'\x00\x00\x00\x00\x00\x00\x00\x00'
tRp2012
sI161
g906
(g908
S'\x00\x00\x00\x00\x00\x00\x00\x00'
tRp2013
sI710
g906
(g908
S'\x00\x00\x00\x00\x00\x00\x00\x00'
tRp2014
sI678
g906
(g908
S'\x00\x00\x00\x00\x00\x00\x00\x00'
tRp2015
sI680
g906
(g908
S'\x00\x00\x00\x00\x00\x00\x00\x00'
tRp2016
sI175
g906
(g908
S'\x00\x00\x00\x00\x00\x00\x00\x00'
tRp2017
sI177
g906
(g908
S'\x00\x00\x00\x00\x00\x00\x00\x00'
tRp2018
sI30
F0
sI694
g906
(g908
S'\x00\x00\x00\x00\x00\x00\x00\x00'
tRp2019
sI696
g906
(g908
S'\x00\x00\x00\x00\x00\x00\x00\x00'
tRp2020
sI544
g906
(g908
S'\x00\x00\x00\x00\x00\x00\x00\x00'
tRp2021
sI196
g906
(g908
S'\x00\x00\x00\x00\x00\x00\x00\x00'
tRp2022
sI198
g906
(g908
S'\x00\x00\x00\x00\x00\x00\x00\x00'
tRp2023
sI712
g906
(g908
S'\x00\x00\x00\x00\x00\x00\x00\x00'
tRp2024
sI212
g906
(g908
S'\x00\x00\x00\x00\x00\x00\x00\x00'
tRp2025
sI726
g906
(g908
S'\x00\x00\x00\x00\x00\x00\x00\x00'
tRp2026
sI728
g906
(g908
S'\x00\x00\x00\x00\x00\x00\x00\x00'
tRp2027
sI228
g906
(g908
S'\x00\x00\x00\x00\x00\x00\x00\x00'
tRp2028
sI230
g906
(g908
S'\x00\x00\x00\x00\x00\x00\x00\x00'
tRp2029
sI744
g906
(g908
S'\x00\x00\x00\x00\x00\x00\x00\x00'
tRp2030
sI244
g906
(g908
S'\x00\x00\x00\x00\x00\x00\x00\x00'
tRp2031
sI246
g906
(g908
S'\x00\x00\x00\x00\x00\x00\x00\x00'
tRp2032
sI763
g906
(g908
S'\x00\x00\x00\x00\x00\x00\x00\x00'
tRp2033
sI765
g906
(g908
S'\x00\x00\x00\x00\x00\x00\x00\x00'
tRp2034
sI260
g906
(g908
S'\x00\x00\x00\x00\x00\x00\x00\x00'
tRp2035
sI214
g906
(g908
S'\x00\x00\x00\x00\x00\x00\x00\x00'
tRp2036
sI262
g906
(g908
S'\x00\x00\x00\x00\x00\x00\x00\x00'
tRp2037
sI778
g906
(g908
S'\x00\x00\x00\x00\x00\x00\x00\x00'
tRp2038
sI780
g906
(g908
S'\x00\x00\x00\x00\x00\x00\x00\x00'
tRp2039
sI276
g906
(g908
S'\x00\x00\x00\x00\x00\x00\x00\x00'
tRp2040
sI278
g906
(g908
S'\x00\x00\x00\x00\x00\x00\x00\x00'
tRp2041
sI793
g906
(g908
S'\x00\x00\x00\x00\x00\x00\x00\x00'
tRp2042
sI795
g906
(g908
S'\x00\x00\x00\x00\x00\x00\x00\x00'
tRp2043
sI292
g906
(g908
S'\x00\x00\x00\x00\x00\x00\x00\x00'
tRp2044
sI294
g906
(g908
S'\x00\x00\x00\x00\x00\x00\x00\x00'
tRp2045
sI808
g906
(g908
S'\x00\x00\x00\x00\x00\x00\x00\x00'
tRp2046
sI810
g906
(g908
S'\x00\x00\x00\x00\x00\x00\x00\x00'
tRp2047
sI813
I0
sI814
I0
sI308
g906
(g908
S'\x00\x00\x00\x00\x00\x00\x00\x00'
tRp2048
sI310
g906
(g908
S'\x00\x00\x00\x00\x00\x00\x00\x00'
tRp2049
sI329
g906
(g908
S'\x00\x00\x00\x00\x00\x00\x00\x00'
tRp2050
sI331
g906
(g908
S'\x00\x00\x00\x00\x00\x00\x00\x00'
tRp2051
sI345
g906
(g908
S'\x00\x00\x00\x00\x00\x00\x00\x00'
tRp2052
sI347
g906
(g908
S'\x00\x00\x00\x00\x00\x00\x00\x00'
tRp2053
sI742
g906
(g908
S'\x00\x00\x00\x00\x00\x00\x00\x00'
tRp2054
sI361
g906
(g908
S'\x00\x00\x00\x00\x00\x00\x00\x00'
tRp2055
sI363
g906
(g908
S'\x00\x00\x00\x00\x00\x00\x00\x00'
tRp2056
sI377
g906
(g908
S'\x00\x00\x00\x00\x00\x00\x00\x00'
tRp2057
sI379
g906
(g908
S'\x00\x00\x00\x00\x00\x00\x00\x00'
tRp2058
sI393
g906
(g908
S'\x00\x00\x00\x00\x00\x00\x00\x00'
tRp2059
sI395
g906
(g908
S'\x00\x00\x00\x00\x00\x00\x00\x00'
tRp2060
sI409
g906
(g908
S'\x00\x00\x00\x00\x00\x00\x00\x00'
tRp2061
sI411
g906
(g908
S'\x00\x00\x00\x00\x00\x00\x00\x00'
tRp2062
sI425
g906
(g908
S'\x00\x00\x00\x00\x00\x00\x00\x00'
tRp2063
sI427
g906
(g908
S'\x00\x00\x00\x00\x00\x00\x00\x00'
tRp2064
sI446
g906
(g908
S'\x00\x00\x00\x00\x00\x00\x00\x00'
tRp2065
sI448
g906
(g908
S'\x00\x00\x00\x00\x00\x00\x00\x00'
tRp2066
sI462
g906
(g908
S'\x00\x00\x00\x00\x00\x00\x00\x00'
tRp2067
sI464
g906
(g908
S'\x00\x00\x00\x00\x00\x00\x00\x00'
tRp2068
sI478
g906
(g908
S'\x00\x00\x00\x00\x00\x00\x00\x00'
tRp2069
sI480
g906
(g908
S'\x00\x00\x00\x00\x00\x00\x00\x00'
tRp2070
sI16
F0
sI494
g906
(g908
S'\x00\x00\x00\x00\x00\x00\x00\x00'
tRp2071
sI496
g906
(g908
S'\x00\x00\x00\x00\x00\x00\x00\x00'
tRp2072
sI510
g906
(g908
S'\x00\x00\x00\x00\x00\x00\x00\x00'
tRp2073
ssS'age'
p2074
(dp2075
I257
F358.30909091000012
sI790
F294.60000000000014
sI390
F262.72000000000003
sI775
F395.10000000000014
sI44
F884.40000000000009
sI523
F68.980000000000018
sI140
F224.40000000000009
sI14
I280
sI655
F-43.720000000000027
sI273
F239.67272727300008
sI406
F138.92000000000007
sI539
F-43.720000000000027
sI156
F114.40000000000009
sI29
I180
sI289
F121.03636363700014
sI675
F500.06666666700005
sI805
F194.10000000000014
sI422
F15.120000000000118
sI172
F4.4000000000000909
sI559
F632.48000000000002
sI305
F2.4000000000000909
sI691
F388.40000000000009
sI443
F632.48000000000002
sI60
F774.40000000000009
sI575
F519.78000000000009
sI193
F832.85454545500011
sI707
F276.73333333400001
sI326
F757.92000000000007
sI459
F519.78000000000009
sI76
F664.40000000000009
sI591
F407.08000000000004
sI209
F714.21818181900005
sI723
F165.06666666700005
sI342
F634.12000000000012
sI475
F407.08000000000004
sI92
F554.40000000000009
sI607
F294.38000000000011
sI225
F595.58181818200012
sI739
F53.400000000000091
sI358
F510.32000000000005
sI491
F294.38000000000011
sI108
F444.40000000000009
sI623
F181.68000000000006
sI241
F476.94545454600006
sI374
F386.5200000000001
sI760
F495.60000000000014
sI507
F181.68000000000006
sI124
F334.40000000000009
sI639
F68.980000000000018
ssS'shape_key'
p2076
(dp2077
I257
(L1L
I0
g906
(g907
(S'i8'
I0
I1
tRp2078
(I3
S'<'
NNNI-1
I-1
I0
tbS'\x05\x00\x00\x00\x00\x00\x00\x00'
tRp2079
tp2080
sI790
(L1L
I0
g906
(g2078
S'\x05\x00\x00\x00\x00\x00\x00\x00'
tRp2081
tp2082
sI390
(L1L
I0
g906
(g2078
S'\x04\x00\x00\x00\x00\x00\x00\x00'
tRp2083
tp2084
sI775
(L1L
I0
g906
(g2078
S'\x07\x00\x00\x00\x00\x00\x00\x00'
tRp2085
tp2086
sI44
(L1L
I0
g906
(g2078
S'\x0f\x00\x00\x00\x00\x00\x00\x00'
tRp2087
tp2088
sI523
(L2L
I0
g906
(g2078
S'\x01\x00\x00\x00\x00\x00\x00\x00'
tRp2089
tp2090
sI140
(L1L
I0
g906
(g2078
S'\x03\x00\x00\x00\x00\x00\x00\x00'
tRp2091
tp2092
sI14
(L1L
I0
g906
(g2078
S'\x04\x00\x00\x00\x00\x00\x00\x00'
tRp2093
tp2094
sI655
(L2L
I0
g906
(g2078
S'\x00\x00\x00\x00\x00\x00\x00\x00'
tRp2095
tp2096
sI273
(L1L
I0
g906
(g2078
S'\x03\x00\x00\x00\x00\x00\x00\x00'
tRp2097
tp2098
sI406
(L2L
I0
g906
(g2078
S'\x02\x00\x00\x00\x00\x00\x00\x00'
tRp2099
tp2100
sI539
(L2L
I0
g906
(g2078
S'\x00\x00\x00\x00\x00\x00\x00\x00'
tRp2101
tp2102
sI156
(L2L
I0
g906
(g2078
S'\x01\x00\x00\x00\x00\x00\x00\x00'
tRp2103
tp2104
sI29
(L1L
I0
g906
(g2078
S'\x03\x00\x00\x00\x00\x00\x00\x00'
tRp2105
tp2106
sI289
(L2L
I0
g906
(g2078
S'\x01\x00\x00\x00\x00\x00\x00\x00'
tRp2107
tp2108
sI675
(L1L
I0
g906
(g2078
S'\x08\x00\x00\x00\x00\x00\x00\x00'
tRp2109
tp2110
sI805
(L1L
I0
g906
(g2078
S'\x03\x00\x00\x00\x00\x00\x00\x00'
tRp2111
tp2112
sI422
(L2L
I0
g906
(g2078
S'\x00\x00\x00\x00\x00\x00\x00\x00'
tRp2113
tp2114
sI172
(L2L
I0
g906
(g2078
S'\x00\x00\x00\x00\x00\x00\x00\x00'
tRp2115
tp2116
sI559
(L1L
I0
g906
(g2078
S'\x0b\x00\x00\x00\x00\x00\x00\x00'
tRp2117
tp2118
sI305
(L2L
I0
g906
(g2078
S'\x00\x00\x00\x00\x00\x00\x00\x00'
tRp2119
tp2120
sI691
(L1L
I0
g906
(g2078
S'\x06\x00\x00\x00\x00\x00\x00\x00'
tRp2121
tp2122
sI443
(L1L
I0
g906
(g2078
S'\x0b\x00\x00\x00\x00\x00\x00\x00'
tRp2123
tp2124
sI60
(L1L
I0
g906
(g2078
S'\r\x00\x00\x00\x00\x00\x00\x00'
tRp2125
tp2126
sI575
(L1L
I0
g906
(g2078
S'\t\x00\x00\x00\x00\x00\x00\x00'
tRp2127
tp2128
sI193
(L1L
I0
g906
(g2078
S'\r\x00\x00\x00\x00\x00\x00\x00'
tRp2129
tp2130
sI707
(L1L
I0
g906
(g2078
S'\x04\x00\x00\x00\x00\x00\x00\x00'
tRp2131
tp2132
sI326
(L1L
I0
g906
(g2078
S'\x0c\x00\x00\x00\x00\x00\x00\x00'
tRp2133
tp2134
sI459
(L1L
I0
g906
(g2078
S'\t\x00\x00\x00\x00\x00\x00\x00'
tRp2135
tp2136
sI76
(L1L
I0
g906
(g2078
S'\x0b\x00\x00\x00\x00\x00\x00\x00'
tRp2137
tp2138
sI591
(L1L
I0
g906
(g2078
S'\x07\x00\x00\x00\x00\x00\x00\x00'
tRp2139
tp2140
sI209
(L1L
I0
g906
(g2078
S'\x0b\x00\x00\x00\x00\x00\x00\x00'
tRp2141
tp2142
sI723
(L1L
I0
g906
(g2078
S'\x02\x00\x00\x00\x00\x00\x00\x00'
tRp2143
tp2144
sI342
(L1L
I0
g906
(g2078
S'\n\x00\x00\x00\x00\x00\x00\x00'
tRp2145
tp2146
sI475
(L1L
I0
g906
(g2078
S'\x07\x00\x00\x00\x00\x00\x00\x00'
tRp2147
tp2148
sI92
(L1L
I0
g906
(g2078
S'\t\x00\x00\x00\x00\x00\x00\x00'
tRp2149
tp2150
sI607
(L1L
I0
g906
(g2078
S'\x05\x00\x00\x00\x00\x00\x00\x00'
tRp2151
tp2152
sI225
(L1L
I0
g906
(g2078
S'\t\x00\x00\x00\x00\x00\x00\x00'
tRp2153
tp2154
sI739
(L2L
I0
g906
(g2078
S'\x00\x00\x00\x00\x00\x00\x00\x00'
tRp2155
tp2156
sI358
(L1L
I0
g906
(g2078
S'\x08\x00\x00\x00\x00\x00\x00\x00'
tRp2157
tp2158
sI491
(L1L
I0
g906
(g2078
S'\x05\x00\x00\x00\x00\x00\x00\x00'
tRp2159
tp2160
sI108
(L1L
I0
g906
(g2078
S'\x07\x00\x00\x00\x00\x00\x00\x00'
tRp2161
tp2162
sI623
(L1L
I0
g906
(g2078
S'\x03\x00\x00\x00\x00\x00\x00\x00'
tRp2163
tp2164
sI241
(L1L
I0
g906
(g2078
S'\x07\x00\x00\x00\x00\x00\x00\x00'
tRp2165
tp2166
sI374
(L1L
I0
g906
(g2078
S'\x06\x00\x00\x00\x00\x00\x00\x00'
tRp2167
tp2168
sI760
(L1L
I0
g906
(g2078
S'\t\x00\x00\x00\x00\x00\x00\x00'
tRp2169
tp2170
sI507
(L1L
I0
g906
(g2078
S'\x03\x00\x00\x00\x00\x00\x00\x00'
tRp2171
tp2172
sI124
(L1L
I0
g906
(g2078
S'\x05\x00\x00\x00\x00\x00\x00\x00'
tRp2173
tp2174
sI639
(L2L
I0
g906
(g2078
S'\x01\x00\x00\x00\x00\x00\x00\x00'
tRp2175
tp2176
ssS'refplant_id'
p2177
(dp2178
I1
g906
(g908
S'\x00\x00\x00\x00\x00\x00\xf0?'
tRp2179
ssS'length'
p2180
(dp2181
I8
g906
(g908
S'\x00\x00\x00\x00\x00\x00\x00\x00'
tRp2182
sI11
F0.028500000000000001
sI14
F0.08199999999999999
sI17
F0
sI18
g906
(g908
S'\x00\x00\x00\x00\x00\x00\x00\x00'
tRp2183
sI19
F0.028500000000000001
sI20
F0
sI21
F0
sI23
g906
(g908
S'\x00\x00\x00\x00\x00\x00\x00\x00'
tRp2184
sI26
F0.029000000000000001
sI29
F0.091999999999999998
sI32
F0
sI33
g906
(g908
S'\x00\x00\x00\x00\x00\x00\x00\x00'
tRp2185
sI34
F0.00050000000000000001
sI35
F0.028500000000000001
sI36
F0
sI38
g906
(g908
S'\x00\x00\x00\x00\x00\x00\x00\x00'
tRp2186
sI41
g906
(g908
S'\xb4\xa0(\xb8\xa7Z\x9d?'
tRp2187
sI44
g906
(g908
S'\x85\x85\xda\xab4\x9d\xb8?'
tRp2188
sI47
F0
sI48
g906
(g908
S'\x00\x00\x00\x00\x00\x00\x00\x00'
tRp2189
sI49
F0
sI50
g906
(g908
S'\xb4\xa0(\xb8\xa7Z\x9d?'
tRp2190
sI51
g906
(g908
S':`\xdf#\x86\x87\xb8?'
tRp2191
sI52
g906
(g908
S'\x00K%\xfb\x87\xae5?'
tRp2192
sI54
g906
(g908
S'\x00\x00\x00\x00\x00\x00\x00\x00'
tRp2193
sI57
g906
(g908
S'\xccnO\x07\xea#\x9e?'
tRp2194
sI60
g906
(g908
S'cr,\xde\xd91\xb8?'
tRp2195
sI63
F0
sI64
g906
(g908
S'\x00\x00\x00\x00\x00\x00\x00\x00'
tRp2196
sI65
F0
sI66
g906
(g908
S'\xccnO\x07\xea#\x9e?'
tRp2197
sI68
g906
(g908
S'cr,\xde\xd91\xb8?'
tRp2198
sI70
g906
(g908
S'\x00\x00\x00\x00\x00\x00\x00\x00'
tRp2199
sI73
g906
(g908
S'\xb6\x9e\x9a\xb7\x93\\\xa0?'
tRp2200
sI76
g906
(g908
S'\xd7Z:1T4\xb8?'
tRp2201
sI79
F0
sI80
g906
(g908
S'\x00\x00\x00\x00\x00\x00\x00\x00'
tRp2202
sI81
F0
sI82
g906
(g908
S'\xb6\x9e\x9a\xb7\x93\\\xa0?'
tRp2203
sI84
g906
(g908
S'\xd7Z:1T4\xb8?'
tRp2204
sI86
g906
(g908
S'\x00\x00\x00\x00\x00\x00\x00\x00'
tRp2205
sI89
g906
(g908
S'$\xe0\xea\xd8=l\xa2?'
tRp2206
sI92
g906
(g908
S'R}4\x0f\\\xe5\xb9?'
tRp2207
sI95
F0
sI96
g906
(g908
S'\x00\x00\x00\x00\x00\x00\x00\x00'
tRp2208
sI97
F0
sI98
g906
(g908
S'$\xe0\xea\xd8=l\xa2?'
tRp2209
sI100
g906
(g908
S'R}4\x0f\\\xe5\xb9?'
tRp2210
sI102
g906
(g908
S'8\xf9\xabe=\xf3K?'
tRp2211
sI105
g906
(g908
S'J\xb8\x1e\xd6/G\xa6?'
tRp2212
sI108
g906
(g908
S'[\xf4\xddgoT\xbd?'
tRp2213
sI111
F0
sI112
g906
(g908
S'8\xf9\xabe=\xf3K?'
tRp2214
sI113
F0
sI114
g906
(g908
S'J\xb8\x1e\xd6/G\xa6?'
tRp2215
sI116
g906
(g908
S'[\xf4\xddgoT\xbd?'
tRp2216
sI118
g906
(g908
S'\xdb}\x13LG\x8fo?'
tRp2217
sI121
g906
(g908
S'd\xd2tS#-\xae?'
tRp2218
sI124
g906
(g908
S'/\xb9\xb2\xa7fH\xc1?'
tRp2219
sI127
F0
sI128
g906
(g908
S'\xdb}\x13LG\x8fo?'
tRp2220
sI129
F0
sI130
g906
(g908
S'd\xd2tS#-\xae?'
tRp2221
sI132
g906
(g908
S'/\xb9\xb2\xa7fH\xc1?'
tRp2222
sI134
g906
(g908
S'\xa8 \xf8\x89\x1f\x8eh?'
tRp2223
sI137
g906
(g908
S'\xa2\xa8O\x99\xc0\xb0\xb3?'
tRp2224
sI140
g906
(g908
S'\xa71|)\x9f\xed\xc4?'
tRp2225
sI143
F0
sI144
g906
(g908
S'\xa8 \xf8\x89\x1f\x8eh?'
tRp2226
sI145
F0
sI146
g906
(g908
S'\xa2\xa8O\x99\xc0\xb0\xb3?'
tRp2227
sI148
g906
(g908
S'\xa71|)\x9f\xed\xc4?'
tRp2228
sI150
g906
(g908
S'\x00\x00\x00\x00\x00\x00\x00\x00'
tRp2229
sI153
g906
(g908
S'@\xb3/\x19\xccG\x82?'
tRp2230
sI156
g906
(g908
S'\xf3\xf4\x89\xe2\x98\xfa\xc8?'
tRp2231
sI159
F0
sI160
g906
(g908
S'\x00\x00\x00\x00\x00\x00\x00\x00'
tRp2232
sI161
F0
sI162
g906
(g908
S'@\xb3/\x19\xccG\x82?'
tRp2233
sI164
g906
(g908
S'\xf3\xf4\x89\xe2\x98\xfa\xc8?'
tRp2234
sI166
g906
(g908
S'\x00\x00\x00\x00\x00\x00\x00\x00'
tRp2235
sI169
g906
(g908
S'\x00\x00\x00\x00\x00\x00\x00\x00'
tRp2236
sI172
g906
(g908
S'\x85\xd5\xf8\x0bAE\xb1?'
tRp2237
sI175
F0
sI176
g906
(g908
S'\x00\x00\x00\x00\x00\x00\x00\x00'
tRp2238
sI177
F0
sI178
g906
(g908
S'\x00\x00\x00\x00\x00\x00\x00\x00'
tRp2239
sI180
g906
(g908
S'\x85\xd5\xf8\x0bAE\xb1?'
tRp2240
sI187
g906
(g908
S'\x00\x00\x00\x00\x00\x00\x00\x00'
tRp2241
sI190
g906
(g908
S'<%\xfe{\xbd\xa2\x9b?'
tRp2242
sI193
g906
(g908
S'\xa6p=\n\xd7\xa3\xb0?'
tRp2243
sI196
F0
sI197
g906
(g908
S'\x00\x00\x00\x00\x00\x00\x00\x00'
tRp2244
sI198
F0
sI199
g906
(g908
S'<%\xfe{\xbd\xa2\x9b?'
tRp2245
sI201
g906
(g908
S'\xa6p=\n\xd7\xa3\xb0?'
tRp2246
sI203
g906
(g908
S'\x00\x00\x00\x00\x00\x00\x00\x00'
tRp2247
sI206
g906
(g908
S'\xd4V\x1aif\xe5\x9f?'
tRp2248
sI209
g906
(g908
S'\xe1\xb9\xf2:(R\xb4?'
tRp2249
sI212
F0
sI213
g906
(g908
S'\x00\x00\x00\x00\x00\x00\x00\x00'
tRp2250
sI214
F0
sI215
g906
(g908
S'\xd4V\x1aif\xe5\x9f?'
tRp2251
sI217
g906
(g908
S'\xe1\xb9\xf2:(R\xb4?'
tRp2252
sI219
g906
(g908
S'\x00\x00\x00\x00\x00\x00\x00\x00'
tRp2253
sI222
g906
(g908
S'@\xd3\xa1_\xa3A\xa3?'
tRp2254
sI225
g906
(g908
S'\x1c\x03\xa8ky\x00\xb8?'
tRp2255
sI228
F0
sI229
g906
(g908
S'\x00\x00\x00\x00\x00\x00\x00\x00'
tRp2256
sI230
F0
sI231
g906
(g908
S'@\xd3\xa1_\xa3A\xa3?'
tRp2257
sI233
g906
(g908
S'\x1c\x03\xa8ky\x00\xb8?'
tRp2258
sI235
g906
(g908
S'\x00\x00\x00\x00\x00\x00\x00\x00'
tRp2259
sI238
g906
(g908
S'.\xe6\\O-\x7f\xa7?'
tRp2260
sI241
g906
(g908
S'WL]\x9c\xca\xae\xbb?'
tRp2261
sI244
F0
sI245
g906
(g908
S'\x00\x00\x00\x00\x00\x00\x00\x00'
tRp2262
sI246
F0
sI247
g906
(g908
S'.\xe6\\O-\x7f\xa7?'
tRp2263
sI249
g906
(g908
S'WL]\x9c\xca\xae\xbb?'
tRp2264
sI251
g906
(g908
S'\x97Jv\x9a\xf6\xe4`?'
tRp2265
sI254
g906
(g908
S'\x8a\x7f\x8fD\x9dx\xac?'
tRp2266
sI257
g906
(g908
S'3C;\xab\xf1a\xbf?'
tRp2267
sI260
F0
sI261
g906
(g908
S'\x97Jv\x9a\xf6\xe4`?'
tRp2268
sI262
F0
sI263
g906
(g908
S'\x8a\x7f\x8fD\x9dx\xac?'
tRp2269
sI265
g906
(g908
S'3C;\xab\xf1a\xbf?'
tRp2270
sI267
g906
(g908
S'\xd4\x90OOHza?'
tRp2271
sI270
g906
(g908
S'\xee\xfc]\xd8\xc6\x03\xb1?'
tRp2272
sI273
g906
(g908
S'q%\x95\xdd\xc7\xc4\xc3?'
tRp2273
sI276
F0
sI277
g906
(g908
S'\xd4\x90OOHza?'
tRp2274
sI278
F0
sI279
g906
(g908
S'\xee\xfc]\xd8\xc6\x03\xb1?'
tRp2275
sI281
g906
(g908
S'q%\x95\xdd\xc7\xc4\xc3?'
tRp2276
sI283
g906
(g908
S'\x00\x00\x00\x00\x00\x00\x00\x00'
tRp2277
sI286
g906
(g908
S'\x00<\x17\xd7\x177K?'
tRp2278
sI289
g906
(g908
S'\n\xc5\x93\xf3*,\xc8?'
tRp2279
sI292
F0
sI293
g906
(g908
S'\x00\x00\x00\x00\x00\x00\x00\x00'
tRp2280
sI294
F0
sI295
g906
(g908
S'\x00<\x17\xd7\x177K?'
tRp2281
sI297
g906
(g908
S'\n\xc5\x93\xf3*,\xc8?'
tRp2282
sI299
g906
(g908
S'\x00\x00\x00\x00\x00\x00\x00\x00'
tRp2283
sI302
g906
(g908
S'\x00\x00\x00\x00\x00\x00\x00\x00'
tRp2284
sI305
g906
(g908
S'\xf2O\xe3\xac\xbf\x10\xb0?'
tRp2285
sI308
F0
sI309
g906
(g908
S'\x00\x00\x00\x00\x00\x00\x00\x00'
tRp2286
sI310
F0
sI311
g906
(g908
S'\x00\x00\x00\x00\x00\x00\x00\x00'
tRp2287
sI313
g906
(g908
S'\xf2O\xe3\xac\xbf\x10\xb0?'
tRp2288
sI320
g906
(g908
S'\x00\x00\x00\x00\x00\x00\x00\x00'
tRp2289
sI323
g906
(g908
S'T\xcc8"\x9f1\x9e?'
tRp2290
sI326
g906
(g908
S'\xa8p=\n\xd7\xa3\xb0?'
tRp2291
sI329
F0
sI330
g906
(g908
S'\x00\x00\x00\x00\x00\x00\x00\x00'
tRp2292
sI331
F0
sI332
g906
(g908
S'T\xcc8"\x9f1\x9e?'
tRp2293
sI334
g906
(g908
S'\xa8p=\n\xd7\xa3\xb0?'
tRp2294
sI336
g906
(g908
S'\x00\x00\x00\x00\x00\x00\x00\x00'
tRp2295
sI339
g906
(g908
S'\xa6\xd8\xe6\x93<\x0b\xa2?'
tRp2296
sI342
g906
(g908
S'\x93\xd5\x19-\xa4\x0f\xb5?'
tRp2297
sI345
F0
sI346
g906
(g908
S'\x00\x00\x00\x00\x00\x00\x00\x00'
tRp2298
sI347
F0
sI348
g906
(g908
S'\xa6\xd8\xe6\x93<\x0b\xa2?'
tRp2299
sI350
g906
(g908
S'\x93\xd5\x19-\xa4\x0f\xb5?'
tRp2300
sI352
g906
(g908
S'\x00\x00\x00\x00\x00\x00\x00\x00'
tRp2301
sI355
g906
(g908
S'|\xba\x17\x9e\xcf\xff\xa5?'
tRp2302
sI358
g906
(g908
S'~:\xf6Oq{\xb9?'
tRp2303
sI361
F0
sI362
g906
(g908
S'\x00\x00\x00\x00\x00\x00\x00\x00'
tRp2304
sI363
F0
sI364
g906
(g908
S'|\xba\x17\x9e\xcf\xff\xa5?'
tRp2305
sI366
g906
(g908
S'~:\xf6Oq{\xb9?'
tRp2306
sI368
g906
(g908
S'\x82\xc1vW\xb1\xf8V?'
tRp2307
sI371
g906
(g908
S'\x12\xfa-d\xbf\xbf\xaa?'
tRp2308
sI374
g906
(g908
S'i\x9f\xd2r>\xe7\xbd?'
tRp2309
sI377
F0
sI378
g906
(g908
S'\x82\xc1vW\xb1\xf8V?'
tRp2310
sI379
F0
sI380
g906
(g908
S'\x12\xfa-d\xbf\xbf\xaa?'
tRp2311
sI382
g906
(g908
S'i\x9f\xd2r>\xe7\xbd?'
tRp2312
sI384
g906
(g908
S'\xa1\x1a6Ug\xe1]?'
tRp2313
sI387
g906
(g908
S'\x84\xe2\xaceH\x10\xb0?'
tRp2314
sI390
g906
(g908
S'H\xa35\x1f\xb6;\xc2?'
tRp2315
sI393
F0
sI394
g906
(g908
S'\xa1\x1a6Ug\xe1]?'
tRp2316
sI395
F0
sI396
g906
(g908
S'\x84\xe2\xaceH\x10\xb0?'
tRp2317
sI398
g906
(g908
S'H\xa35\x1f\xb6;\xc2?'
tRp2318
sI400
g906
(g908
S'\x00\x00\x00\x00\x00\x00\x00\x00'
tRp2319
sI403
g906
(g908
S'\xd0\r\xb2J\x14j\x8c?'
tRp2320
sI406
g906
(g908
S'\xd7\xfb\x8f\x9d\x10\xd7\xc6?'
tRp2321
sI409
F0
sI410
g906
(g908
S'\x00\x00\x00\x00\x00\x00\x00\x00'
tRp2322
sI411
F0
sI412
g906
(g908
S'\xd0\r\xb2J\x14j\x8c?'
tRp2323
sI414
g906
(g908
S'\xd7\xfb\x8f\x9d\x10\xd7\xc6?'
tRp2324
sI416
g906
(g908
S'\x00\x00\x00\x00\x00\x00\x00\x00'
tRp2325
sI419
g906
(g908
S'\x00\x00\x00\x00\x00\x00\x00\x00'
tRp2326
sI422
g906
(g908
S'\xfe,\xec\xa9tk\xb3?'
tRp2327
sI425
F0
sI426
g906
(g908
S'\x00\x00\x00\x00\x00\x00\x00\x00'
tRp2328
sI427
F0
sI428
g906
(g908
S'\x00\x00\x00\x00\x00\x00\x00\x00'
tRp2329
sI430
g906
(g908
S'\xfe,\xec\xa9tk\xb3?'
tRp2330
sI437
g906
(g908
S'\x00\x00\x00\x00\x00\x00\x00\x00'
tRp2331
sI440
g906
(g908
S'v]\xa8\xed+\xf1\xa0?'
tRp2332
sI443
g906
(g908
S'\xa3p=\n\xd7\xa3\xb0?'
tRp2333
sI446
F0
sI447
g906
(g908
S'\x00\x00\x00\x00\x00\x00\x00\x00'
tRp2334
sI448
F0
sI449
g906
(g908
S'v]\xa8\xed+\xf1\xa0?'
tRp2335
sI451
g906
(g908
S'\xa3p=\n\xd7\xa3\xb0?'
tRp2336
sI453
g906
(g908
S'\x00\x00\x00\x00\x00\x00\x00\x00'
tRp2337
sI456
g906
(g908
S'"\xc7\x1b\x14\xbf\x96\xa4?'
tRp2338
sI459
g906
(g908
S'\xbf\x1c\x06\x85\x82,\xb6?'
tRp2339
sI462
F0
sI463
g906
(g908
S'\x00\x00\x00\x00\x00\x00\x00\x00'
tRp2340
sI464
F0
sI465
g906
(g908
S'"\xc7\x1b\x14\xbf\x96\xa4?'
tRp2341
sI467
g906
(g908
S'\xbf\x1c\x06\x85\x82,\xb6?'
tRp2342
sI469
g906
(g908
S'\xf6X\x13/,\x87Q?'
tRp2343
sI472
g906
(g908
S'\xc0KX\xb1\x80\x18\xa9?'
tRp2344
sI475
g906
(g908
S'\xda\xc8\xce\xff-\xb5\xbb?'
tRp2345
sI478
F0
sI479
g906
(g908
S'\xf6X\x13/,\x87Q?'
tRp2346
sI480
F0
sI481
g906
(g908
S'\xc0KX\xb1\x80\x18\xa9?'
tRp2347
sI483
g906
(g908
S'\xda\xc8\xce\xff-\xb5\xbb?'
tRp2348
sI485
g906
(g908
S'h\x80\x8c\xb2\x8f\x13c?'
tRp2349
sI488
g906
(g908
S'\x18\xec;\x1e\xe0G\xae?'
tRp2350
sI491
g906
(g908
S'\x9akh.\x1e\xd6\xc0?'
tRp2351
sI494
F0
sI495
g906
(g908
S'h\x80\x8c\xb2\x8f\x13c?'
tRp2352
sI496
F0
sI497
g906
(g908
S'\x18\xec;\x1e\xe0G\xae?'
tRp2353
sI499
g906
(g908
S'\x9akh.\x1e\xd6\xc0?'
tRp2354
sI501
g906
(g908
S'BV\x1b\x9a\x97\x82\x16?'
tRp2355
sI504
g906
(g908
S'\x10\xf4*rM\x01\xb2?'
tRp2356
sI507
g906
(g908
S'\n\xc7FF\xcfY\xc5?'
tRp2357
sI510
F0
sI511
g906
(g908
S'BV\x1b\x9a\x97\x82\x16?'
tRp2358
sI512
F0
sI513
g906
(g908
S'\x10\xf4*rM\x01\xb2?'
tRp2359
sI515
g906
(g908
S'\n\xc7FF\xcfY\xc5?'
tRp2360
sI517
g906
(g908
S'\x00\x00\x00\x00\x00\x00\x00\x00'
tRp2361
sI520
g906
(g908
S'\x00\x00\x00\x00\x00\x00\x00\x00'
tRp2362
sI523
g906
(g908
S'\x93\x97~7\xd5"\xc2?'
tRp2363
sI526
F0
sI527
g906
(g908
S'\x00\x00\x00\x00\x00\x00\x00\x00'
tRp2364
sI528
F0
sI529
g906
(g908
S'\x00\x00\x00\x00\x00\x00\x00\x00'
tRp2365
sI531
g906
(g908
S'\x93\x97~7\xd5"\xc2?'
tRp2366
sI533
g906
(g908
S'\x00\x00\x00\x00\x00\x00\x00\x00'
tRp2367
sI536
g906
(g908
S'\x00\x00\x00\x00\x00\x00\x00\x00'
tRp2368
sI539
g906
(g908
S'\x16G0\xa0\x87\x10^?'
tRp2369
sI542
F0
sI543
g906
(g908
S'\x00\x00\x00\x00\x00\x00\x00\x00'
tRp2370
sI544
F0
sI545
g906
(g908
S'\x00\x00\x00\x00\x00\x00\x00\x00'
tRp2371
sI546
g906
(g908
S'\x16G0\xa0\x87\x10^?'
tRp2372
sI553
g906
(g908
S'\x00\x00\x00\x00\x00\x00\x00\x00'
tRp2373
sI556
g906
(g908
S'v]\xa8\xed+\xf1\xa0?'
tRp2374
sI559
g906
(g908
S'\xa3p=\n\xd7\xa3\xb0?'
tRp2375
sI562
F0
sI563
g906
(g908
S'\x00\x00\x00\x00\x00\x00\x00\x00'
tRp2376
sI564
F0
sI565
g906
(g908
S'v]\xa8\xed+\xf1\xa0?'
tRp2377
sI567
g906
(g908
S'\xa3p=\n\xd7\xa3\xb0?'
tRp2378
sI569
g906
(g908
S'\x00\x00\x00\x00\x00\x00\x00\x00'
tRp2379
sI572
g906
(g908
S'"\xc7\x1b\x14\xbf\x96\xa4?'
tRp2380
sI575
g906
(g908
S'\xbf\x1c\x06\x85\x82,\xb6?'
tRp2381
sI578
F0
sI579
g906
(g908
S'\x00\x00\x00\x00\x00\x00\x00\x00'
tRp2382
sI580
F0
sI581
g906
(g908
S'"\xc7\x1b\x14\xbf\x96\xa4?'
tRp2383
sI583
g906
(g908
S'\xbf\x1c\x06\x85\x82,\xb6?'
tRp2384
sI585
g906
(g908
S'\xf6X\x13/,\x87Q?'
tRp2385
sI588
g906
(g908
S'\xc0KX\xb1\x80\x18\xa9?'
tRp2386
sI591
g906
(g908
S'\xda\xc8\xce\xff-\xb5\xbb?'
tRp2387
sI594
F0
sI595
g906
(g908
S'\xf6X\x13/,\x87Q?'
tRp2388
sI596
F0
sI597
g906
(g908
S'\xc0KX\xb1\x80\x18\xa9?'
tRp2389
sI599
g906
(g908
S'\xda\xc8\xce\xff-\xb5\xbb?'
tRp2390
sI601
g906
(g908
S'h\x80\x8c\xb2\x8f\x13c?'
tRp2391
sI604
g906
(g908
S'\x18\xec;\x1e\xe0G\xae?'
tRp2392
sI607
g906
(g908
S'\x9akh.\x1e\xd6\xc0?'
tRp2393
sI610
F0
sI611
g906
(g908
S'h\x80\x8c\xb2\x8f\x13c?'
tRp2394
sI612
F0
sI613
g906
(g908
S'\x18\xec;\x1e\xe0G\xae?'
tRp2395
sI615
g906
(g908
S'\x9akh.\x1e\xd6\xc0?'
tRp2396
sI617
g906
(g908
S'BV\x1b\x9a\x97\x82\x16?'
tRp2397
sI620
g906
(g908
S'\x10\xf4*rM\x01\xb2?'
tRp2398
sI623
g906
(g908
S'\n\xc7FF\xcfY\xc5?'
tRp2399
sI626
F0
sI627
g906
(g908
S'BV\x1b\x9a\x97\x82\x16?'
tRp2400
sI628
F0
sI629
g906
(g908
S'\x10\xf4*rM\x01\xb2?'
tRp2401
sI631
g906
(g908
S'\n\xc7FF\xcfY\xc5?'
tRp2402
sI633
g906
(g908
S'\x00\x00\x00\x00\x00\x00\x00\x00'
tRp2403
sI636
g906
(g908
S'\x00\x00\x00\x00\x00\x00\x00\x00'
tRp2404
sI639
g906
(g908
S'\x93\x97~7\xd5"\xc2?'
tRp2405
sI642
F0
sI643
g906
(g908
S'\x00\x00\x00\x00\x00\x00\x00\x00'
tRp2406
sI644
F0
sI645
g906
(g908
S'\x00\x00\x00\x00\x00\x00\x00\x00'
tRp2407
sI647
g906
(g908
S'\x93\x97~7\xd5"\xc2?'
tRp2408
sI649
g906
(g908
S'\x00\x00\x00\x00\x00\x00\x00\x00'
tRp2409
sI652
g906
(g908
S'\x00\x00\x00\x00\x00\x00\x00\x00'
tRp2410
sI655
g906
(g908
S'\x16G0\xa0\x87\x10^?'
tRp2411
sI658
F0
sI659
g906
(g908
S'\x00\x00\x00\x00\x00\x00\x00\x00'
tRp2412
sI660
F0
sI661
g906
(g908
S'\x00\x00\x00\x00\x00\x00\x00\x00'
tRp2413
sI662
g906
(g908
S'\x16G0\xa0\x87\x10^?'
tRp2414
sI669
g906
(g908
S'\x00\x00\x00\x00\x00\x00\x00\x00'
tRp2415
sI672
g906
(g908
S'n\x19\x7f\x00\xd6E\xa3?'
tRp2416
sI675
g906
(g908
S'\xa3p=\n\xd7\xa3\xb0?'
tRp2417
sI678
F0
sI679
g906
(g908
S'\x00\x00\x00\x00\x00\x00\x00\x00'
tRp2418
sI680
F0
sI681
g906
(g908
S'n\x19\x7f\x00\xd6E\xa3?'
tRp2419
sI683
g906
(g908
S'\xa3p=\n\xd7\xa3\xb0?'
tRp2420
sI685
g906
(g908
S'\x00\x00\x00\x00\x00\x00\x00\x00'
tRp2421
sI688
g906
(g908
S'LDRNH\x84\xa7?'
tRp2422
sI691
g906
(g908
S'\x0c\x1d\x88\xe0\x02\t\xb8?'
tRp2423
sI694
F0
sI695
g906
(g908
S'\x00\x00\x00\x00\x00\x00\x00\x00'
tRp2424
sI696
F0
sI697
g906
(g908
S'LDRNH\x84\xa7?'
tRp2425
sI699
g906
(g908
S'\x0c\x1d\x88\xe0\x02\t\xb8?'
tRp2426
sI701
g906
(g908
S'G-\xdd:\r\x05U?'
tRp2427
sI704
g906
(g908
S'\x12\x01\xd4\x9eo~\xac?'
tRp2428
sI707
g906
(g908
S'q\xb9+\xb7Ch\xbf?'
tRp2429
sI710
F0
sI711
g906
(g908
S'G-\xdd:\r\x05U?'
tRp2430
sI712
F0
sI713
g906
(g908
S'\x12\x01\xd4\x9eo~\xac?'
tRp2431
sI715
g906
(g908
S'q\xb9+\xb7Ch\xbf?'
tRp2432
sI717
g906
(g908
S'\x00\x00\x00\x00\x00\x00\x00\x00'
tRp2433
sI720
g906
(g908
S'\x88r\xaag\x16)\xab?'
tRp2434
sI723
g906
(g908
S'\xcd\x98\xec\xe4\xf9\xc9\xc3?'
tRp2435
sI726
F0
sI727
g906
(g908
S'\x00\x00\x00\x00\x00\x00\x00\x00'
tRp2436
sI728
F0
sI729
g906
(g908
S'\x88r\xaag\x16)\xab?'
tRp2437
sI731
g906
(g908
S'\xcd\x98\xec\xe4\xf9\xc9\xc3?'
tRp2438
sI733
g906
(g908
S'\x00\x00\x00\x00\x00\x00\x00\x00'
tRp2439
sI736
g906
(g908
S'\x00\x00\x00\x00\x00\x00\x00\x00'
tRp2440
sI739
g906
(g908
S'\x17^[J\xbd\x0b\xbe?'
tRp2441
sI742
F0
sI743
g906
(g908
S'\x00\x00\x00\x00\x00\x00\x00\x00'
tRp2442
sI744
F0
sI745
g906
(g908
S'\x00\x00\x00\x00\x00\x00\x00\x00'
tRp2443
sI747
g906
(g908
S'\x17^[J\xbd\x0b\xbe?'
tRp2444
sI754
g906
(g908
S'\x00\x00\x00\x00\x00\x00\x00\x00'
tRp2445
sI757
g906
(g908
S'\x00\x00\x00\x00\x00\x00\x00\x00'
tRp2446
sI760
g906
(g908
S'\x00\x00\x00\x00\x00\x00\x00\x00'
tRp2447
sI763
F0
sI764
g906
(g908
S'\x00\x00\x00\x00\x00\x00\x00\x00'
tRp2448
sI765
F0
sI766
g906
(g908
S'\x00\x00\x00\x00\x00\x00\x00\x00'
tRp2449
sI767
g906
(g908
S'\x00\x00\x00\x00\x00\x00\x00\x00'
tRp2450
sI769
g906
(g908
S'\x00\x00\x00\x00\x00\x00\x00\x00'
tRp2451
sI772
g906
(g908
S'\x00\x00\x00\x00\x00\x00\x00\x00'
tRp2452
sI775
g906
(g908
S'\x00\x00\x00\x00\x00\x00\x00\x00'
tRp2453
sI778
F0
sI779
g906
(g908
S'\x00\x00\x00\x00\x00\x00\x00\x00'
tRp2454
sI780
F0
sI781
g906
(g908
S'\x00\x00\x00\x00\x00\x00\x00\x00'
tRp2455
sI782
g906
(g908
S'\x00\x00\x00\x00\x00\x00\x00\x00'
tRp2456
sI784
g906
(g908
S'7\xbek\xeb\x8a\xdd_?'
tRp2457
sI787
g906
(g908
S'\x00\x00\x00\x00\x00\x00\x00\x00'
tRp2458
sI790
g906
(g908
S'\x00\x00\x00\x00\x00\x00\x00\x00'
tRp2459
sI793
F0
sI794
g906
(g908
S'7\xbek\xeb\x8a\xdd_?'
tRp2460
sI795
F0
sI796
g906
(g908
S'\x00\x00\x00\x00\x00\x00\x00\x00'
tRp2461
sI797
g906
(g908
S'\x00\x00\x00\x00\x00\x00\x00\x00'
tRp2462
sI799
g906
(g908
S'v\xdc\xaf)\x16\xb0[?'
tRp2463
sI802
g906
(g908
S'\x00\x00\x00\x00\x00\x00\x00\x00'
tRp2464
sI805
g906
(g908
S'\x00\x00\x00\x00\x00\x00\x00\x00'
tRp2465
sI808
F0
sI809
g906
(g908
S'v\xdc\xaf)\x16\xb0[?'
tRp2466
sI810
F0
sI811
g906
(g908
S'\x00\x00\x00\x00\x00\x00\x00\x00'
tRp2467
sI812
g906
(g908
S'\x00\x00\x00\x00\x00\x00\x00\x00'
tRp2468
sI813
F0.08199999999999999
sI814
F0.091999999999999998
ssS'meta'
p2469
(dp2470
I0
(dp2471
S'domain'
p2472
((F-0.013333333333333334
F-0.074999999999999997
t(F0.013333333333333334
F0.074999999999999997
ttp2473
sS'nsect'
p2474
I1
sS'domain_area'
p2475
F0.0040000000000000001
sS'stand'
p2476
(dp2477
S'density_curve_data'
p2478
NsS'noise'
p2479
F0.040000000000000001
sS'sowing_density'
p2480
F250
sS'inter_row'
p2481
F0.14999999999999999
sS'plant_density'
p2482
F250
ssS'aspect'
p2483
S'smart'
p2484
sS'scene_unit'
p2485
S'm'
sS'convUnit'
p2486
I1
sS'canopy_age'
p2487
cnumpy.core.multiarray
_reconstruct
p2488
(cnumpy
ndarray
p2489
(I0
tS'b'
tRp2490
(I1
(L1L
tg907
(S'f8'
I0
I1
tRp2491
(I3
S'<'
NNNI-1
I-1
I0
tbI00
S'\x9a\x99\x99\x99\x99\x91\x90@'
tbsS'nplants'
p2492
I1
sS'split'
p2493
I00
sssS'srt'
p2494
(dp2495
I51
g906
(g908
S'\x00\x00\x00\x00\x00\x00\xf0?'
tRp2496
sI813
F1
sI814
F1
ssS'azimuth'
p2497
(dp2498
I512
I0
sI1
g906
(g908
S'\xf9p_\xaf\x115p@'
tRp2499
sI2
g906
(g908
S'\x00\x00\x00\x00\x00\x00\x00\x00'
tRp2500
sI517
g906
(g908
S'\x00\x80(O>\x10d@'
tRp2501
sI8
g906
(g908
S'\x00\x00:\xd1Q\xe5W@'
tRp2502
sI11
I0
sI526
g2501
sI528
I0
sI17
g2502
sI19
I0
sI533
g906
(g908
S'\x00\x00,"\xa9Yh@'
tRp2503
sI23
g906
(g908
S'\x00\xc0\xcb+\x0f\xaff@'
tRp2504
sI536
I0
sI260
g906
(g908
S'\x00\x00)\xd9\x1cHf@'
tRp2505
sI26
I0
sI542
g2503
sI32
g2504
sI34
I0
sI547
g906
(g908
S'\x00\x00\xfc\x03;\xa41\xc0'
tRp2506
sI38
g906
(g908
S'\x00@\x15\xda\x89\xdaf@'
tRp2507
sI41
I0
sI556
I0
sI47
g2507
sI49
I0
sI562
g906
(g908
S'\x00\x80\xa6\xc8\x89`R@'
tRp2508
sI564
I0
sI54
g906
(g908
S'\x00\x00\x12\xbc\xf8\x90f@'
tRp2509
sI57
I0
sI572
I0
sI63
g2509
sI65
I0
sI578
g906
(g908
S'\x00@TN\xf6\xf1f@'
tRp2510
sI580
I0
sI70
g906
(g908
S'\x00@\xc5\xa0\x82\x89f@'
tRp2511
sI73
I0
sI588
I0
sI79
g2511
sI81
I0
sI594
g906
(g908
S'\x00@\xfd&<]f@'
tRp2512
sI596
I0
sI86
g906
(g908
S'\x00\x00\x00\x10\x98\xdcf@'
tRp2513
sI89
I0
sI604
I0
sI95
g2513
sI97
I0
sI610
g906
(g908
S'\x00\xc0!\x0f\xc2Yf@'
tRp2514
sI612
I0
sI102
g906
(g908
S'\x00\xc0\xc6Jw\xe7e@'
tRp2515
sI105
I0
sI620
I0
sI111
g2515
sI113
I0
sI626
g906
(g908
S'\x00\x00\xa9\xe3\x8a\xfef@'
tRp2516
sI628
I0
sI118
g906
(g908
S'\x00\x80\xda\xaf\xb6xf@'
tRp2517
sI617
g2516
sI121
I0
sI636
I0
sI127
g2517
sI129
I0
sI642
g906
(g908
S'\x00\x00s\x15\x16\x95g@'
tRp2518
sI644
I0
sI134
g906
(g908
S'\x00\x807$W\xcaf@'
tRp2519
sI137
I0
sI652
I0
sI143
g2519
sI145
I0
sI658
g906
(g908
S'\x00\x008\xfa\xdeNh@'
tRp2520
sI660
I0
sI150
g906
(g908
S'\x00\x00&j\x0b\xf2g@'
tRp2521
sI663
g906
(g908
S'\x00\x00\x98\x99\x16h3\xc0'
tRp2522
sI153
I0
sI669
g906
(g908
S'\x00\x00?\x15|?S@'
tRp2523
sI159
g2521
sI672
I0
sI161
I0
sI283
g906
(g908
S'\x00\x80\x18L+Ed@'
tRp2524
sI198
I0
sI166
g906
(g908
S'\x00\x80\xbf\x98\x07Uf@'
tRp2525
sI680
I0
sI169
I0
sI685
g906
(g908
S'\x00\x00\xf7k\xf7%f@'
tRp2526
sI175
g2525
sI688
I0
sI177
I0
sI181
g906
(g908
S'\x00\x00\xa0K\xb5K#@'
tRp2527
sI694
g2526
sI696
I0
sI187
g906
(g908
S'\x00\xc0\xcdc\x14\x97R@'
tRp2528
sI701
g906
(g908
S'\x00\xc00\xff_\x85f@'
tRp2529
sI190
I0
sI704
I0
sI544
I0
sI196
g2528
sI710
g2529
sI712
I0
sI203
g906
(g908
S'\x00\x00\x14N\x17kf@'
tRp2530
sI717
g906
(g908
S'\x00@\xb8n\x106f@'
tRp2531
sI206
I0
sI720
I0
sI212
g2530
sI214
I0
sI633
g2518
sI728
I0
sI219
g906
(g908
S'\x00\xc0\xd53\x01\xc4f@'
tRp2532
sI733
g906
(g908
S'\x00\x803\xdb\xd7\x1bd@'
tRp2533
sI222
I0
sI736
I0
sI228
g2532
sI230
I0
sI744
I0
sI235
g906
(g908
S'\x00@\xe8\x89\xff_f@'
tRp2534
sI748
g906
(g908
S'\x00\x00p\x83Wq&@'
tRp2535
sI238
I0
sI754
g906
(g908
S'\x00\x00J\xccKNS@'
tRp2536
sI244
g2534
sI757
I0
sI246
I0
sI553
g2508
sI251
g2505
sI765
I0
sI254
I0
sI769
g906
(g908
S'\x00\xc0\x95\xcdG\xf1f@'
tRp2537
sI772
I0
sI726
g2531
sI262
I0
sI778
g2537
sI267
g906
(g908
S'\x00@D\x94D\xd2f@'
tRp2538
sI780
I0
sI270
I0
sI784
g906
(g908
S'\x00@\x1a#\x1dOf@'
tRp2539
sI787
I0
sI276
g2538
sI278
I0
sI793
g2539
sI795
I0
sI601
g2514
sI286
I0
sI520
I0
sI802
I0
sI292
g2524
sI294
I0
sI808
g906
(g908
S'\x00\x00A\xc1\x0f\nf@'
tRp2540
sI810
I0
sI299
g906
(g908
S'\x00\x00\xa3MZ\x15h@'
tRp2541
sI302
I0
sI308
g2541
sI310
I0
sI649
g2520
sI314
g906
(g908
S'\x00\x00\xc0P\xc4\xfc\x1e@'
tRp2542
sI320
g906
(g908
S'\x00@\xc4%P\xd7R@'
tRp2543
sI323
I0
sI329
g2543
sI331
I0
sI336
g906
(g908
S"\x00@\x92\x11'Rf@"
tRp2544
sI339
I0
sI569
g2510
sI345
g2544
sI347
I0
sI485
g906
(g908
S'\x00@Z\x0ba\xc9f@'
tRp2545
sI352
g906
(g908
S'\x00\x80!S\x12jf@'
tRp2546
sI355
I0
sI742
g2533
sI361
g2546
sI363
I0
sI368
g906
(g908
S'\x00\x80\xb5}m\x0ff@'
tRp2547
sI371
I0
sI377
g2547
sI379
I0
sI384
g906
(g908
S'\x00\xc0\xa2P/\xe4e@'
tRp2548
sI387
I0
sI393
g2548
sI395
I0
sI400
g906
(g908
S'\x00\x00f\x08\xe3\x1dh@'
tRp2549
sI403
I0
sI409
g2549
sI411
I0
sI416
g906
(g908
S'\x00\x00\x95\x1d\x1d\x86c@'
tRp2550
sI419
I0
sI425
g2550
sI427
I0
sI431
g906
(g908
S'\x00\x00\xac\x7f\xf6J:\xc0'
tRp2551
sI437
g906
(g908
S'\x00\x00\xd5a\xa0BS@'
tRp2552
sI585
g2512
sI440
I0
sI446
g2552
sI448
I0
sI453
g906
(g908
S'\x00\xc0@\x1fp,f@'
tRp2553
sI799
g2540
sI456
I0
sI462
g2553
sI464
I0
sI469
g906
(g908
S'\x00\x00\xe5\xf3\x9c2f@'
tRp2554
sI472
I0
sI478
g2554
sI480
I0
sI763
g2536
sI678
g2523
sI488
I0
sI494
g2545
sI496
I0
sI501
g906
(g908
S'\x00\x00>\x9a\xd2pf@'
tRp2555
sI504
I0
sI510
g2555
ssS'position'
p2556
(dp2557
I1
(g906
(g908
S'\xd8\x8f\xd4N\xef\xc9[?'
tRp2558
g906
(g908
S'@j\x0fw-#]?'
tRp2559
F0
tp2560
ssS'width'
p2561
(dp2562
I51
g906
(g908
S'\xec\xe5\xf2_|\xe6g?'
tRp2563
sI814
g906
(g908
S'\x1a\xfd2~\x04\xf3d?'
tRp2564
sI813
g906
(g908
S'^\xfd\xb9rx\x0bc?'
tRp2565
sI14
F0.0030000000000000001
sI29
F0.0033
sssS'_id'
p2566
I814
sb.